(dp0
S'limited'
p1
I20
sS'GM/0108149'
p2
I10
sS'similarity'
p3
I30
sS'magnetic'
p4
I20
sS'dynamic'
p5
I90
sS'hitch'
p6
I10
sS'entropy'
p7
I20
sS'consists'
p8
I100
sS'semantic'
p9
I10
sS'integrity'
p10
I10
sS'aliases'
p11
I10
sS'relationships'
p12
I10
sS'Foundation'
p13
I20
sS'Spectators'
p14
I10
sS'calculate'
p15
I10
sS'electricity'
p16
I10
sS'Plato'
p17
I60
sS'behaviours'
p18
I20
sS'Chaitin'
p19
I20
sS'presents'
p20
I70
sS'55-85'
p21
I10
sS'Western'
p22
I50
sS'selforganizing'
p23
I10
sS'under'
p24
I20
sS'lore'
p25
I40
sS'G.'
p26
I130
sS'ontological'
p27
I70
sS'summarizes'
p28
I10
sS'@'
p29
I20
sS'conjecture'
p30
I10
sS'p483'
p31
I10
sS'Key'
p32
I10
sS'Identifying'
p33
I10
sS'misunderstanding'
p34
I20
sS'Godin'
p35
I20
sS'every'
p36
I40
sS'affect'
p37
I10
sS'Parametric'
p38
I10
sS'look'
p39
I60
sS'Shapiro'
p40
I10
sS'differentiated'
p41
I10
sS'D.F'
p42
I10
sS'Dodig-Crnkovic1'
p43
I10
sS'supports'
p44
I40
sS'solution'
p45
I20
sS'D.J'
p46
I20
sS'vector'
p47
I30
sS'indices'
p48
I40
sS'ultra-violet'
p49
I10
sS'unifying'
p50
I10
sS'1940s'
p51
I10
sS'naturalism'
p52
I40
sS'structuralistic'
p53
I30
sS'force'
p54
I10
sS'disciplines'
p55
I20
sS'Claude'
p56
I10
sS'Distinctions'
p57
I10
sS'consistent'
p58
I10
sS'estimates'
p59
I30
sS'direct'
p60
I50
sS'second'
p61
I100
sS'Attitudes'
p62
I10
sS'Philosophy1'
p63
I10
sS'n'
p64
I10
sS'Moses'
p65
I10
sS'machines'
p66
I30
sS'inanimate'
p67
I10
sS'even'
p68
I240
sS'York/London/Paris'
p69
I10
sS'organisms'
p70
I10
sS'Pub'
p71
I20
sS'consequent'
p72
I10
sS'Clarendon'
p73
I10
sS'above'
p74
I10
sS'Informatics'
p75
I10
sS'new'
p76
I170
sS'Schuster'
p77
I10
sS'ever'
p78
I10
sS'consisting'
p79
I20
sS'pioneering'
p80
I30
sS'1997b'
p81
I10
sS'1997a'
p82
I20
sS'Paradigms'
p83
I10
sS'Ave.'
p84
I10
sS'notions'
p85
I20
sS'never'
p86
I10
sS'here'
p87
I30
sS'atoms'
p88
I70
sS'anthropology'
p89
I10
sS'reported'
p90
I10
sS'represented'
p91
I70
sS'interpret'
p92
I10
sS'stresses'
p93
I10
sS"'Ding"
p94
I10
sS'substance'
p95
I20
sS'tapes'
p96
I20
sS'suitably'
p97
I10
sS'rests'
p98
I10
sS'study'
p99
I100
sS'economics'
p100
I30
sS'affective'
p101
I20
sS'controversy'
p102
I20
sS'37-72'
p103
I10
sS'generale'
p104
I10
sS'smoke'
p105
I10
sS'changes'
p106
I170
sS'criticism'
p107
I10
sS'Compared'
p108
I10
sS'26-28'
p109
I10
sS'Basis'
p110
I10
sS'Rather'
p111
I10
sS'dinglichen'
p112
I10
sS'objectively'
p113
I30
sS'psychological'
p114
I10
sS'visible'
p115
I40
sS'microparticles'
p116
I10
sS'visualization'
p117
I10
sS'Basic'
p118
I10
sS'Basil'
p119
I10
sS'glance'
p120
I10
sS'total'
p121
I10
sS'indictment'
p122
I10
sS'unit'
p123
I40
sS'Skagestad'
p124
I20
sS'plot'
p125
I10
sS'charge'
p126
I10
sS'would'
p127
I70
sS'found'
p128
I40
sS'Jung'
p129
I30
sS'deep-rooted'
p130
I10
sS'call'
p131
I20
sS'therefore'
p132
I10
sS'Foundations'
p133
I80
sS'type'
p134
I80
sS'until'
p135
I30
sS'separated'
p136
I10
sS'mush'
p137
I10
sS'successful'
p138
I10
sS'brings'
p139
I20
sS'ascribe'
p140
I10
sS'Inform'
p141
I10
sS'V'
p142
I10
sS'biotic'
p143
I10
sS'physically'
p144
I30
sS'97'
p145
I10
sS'must'
p146
I70
sS'me'
p147
I20
sS'1990'
p148
I20
sS'1993'
p149
I40
sS'1992'
p150
I10
sS'word'
p151
I190
sS'1994'
p152
I20
sS'1997'
p153
I140
sS'1996'
p154
I80
sS'1999'
p155
I130
sS'1998'
p156
I50
sS'work'
p157
I140
sS'Ideal'
p158
I10
sS'Info-computationalism'
p159
I30
sS'theories'
p160
I50
sS'movies'
p161
I30
sS'deficiencies'
p162
I10
sS'concepts'
p163
I160
sS'example'
p164
I420
sS'subnuclear'
p165
I10
sS'Boulding'
p166
I30
sS'Perspectives'
p167
I10
sS'give'
p168
I130
sS'relativistic'
p169
I50
sS'preserving'
p170
I10
sS'organized'
p171
I50
sS'Tampere'
p172
I20
sS'indicates'
p173
I20
sS'want'
p174
I60
sS'Digital'
p175
I10
sS'present-day'
p176
I10
sS'absolute'
p177
I50
sS'Ladyman'
p178
I10
sS'end'
p179
I20
sS'object/denotat'
p180
I10
sS'Phoenix'
p181
I10
sS'carriers'
p182
I90
sS'provide'
p183
I30
sS'Journal'
p184
I70
sS'Structure-Information-Matter-Energy'
p185
I20
sS'machine'
p186
I10
sS'how'
p187
I160
sS'hot'
p188
I40
sS'Philos'
p189
I10
sS'answer'
p190
I40
sS'widespread'
p191
I10
sS'actuality'
p192
I10
sS'Weizsaker'
p193
I10
sS'classify'
p194
I10
sS'A'
p195
I640
sS'abstraction'
p196
I10
sS'contextawareness'
p197
I10
sS'L.'
p198
I90
sS'thermodynamic'
p199
I10
sS'after'
p200
I30
sS'Roughly'
p201
I10
sS'connects'
p202
I10
sS'diagram'
p203
I10
sS'wrong'
p204
I20
sS'meaningful'
p205
I10
sS'parallel'
p206
I20
sS'types'
p207
I120
sS'All'
p208
I40
sS'third'
p209
I30
sS'name/vehicle'
p210
I10
sS'Japanese'
p211
I100
sS'complexity'
p212
I40
sS'maintain'
p213
I10
sS'algorithms'
p214
I30
sS'Lloyd'
p215
I10
sS'Another'
p216
I60
sS'keeps'
p217
I10
sS'operate'
p218
I10
sS'order'
p219
I30
sS'1623'
p220
I20
sS'operations'
p221
I20
sS'Even'
p222
I40
sS'internalization'
p223
I10
sS'interpretation'
p224
I50
sS'Selected'
p225
I10
sS'vary'
p226
I20
sS'synonyms'
p227
I10
sS'plastics'
p228
I10
sS'thesis'
p229
I10
sS'Robertson'
p230
I20
sS'nets'
p231
I10
sS'1-18'
p232
I10
sS'before'
p233
I80
sS'personal'
p234
I10
sS'fractal'
p235
I20
sS','
p236
I17780
sS'Here'
p237
I70
sS'writing'
p238
I10
sS'better'
p239
I80
sS'Aesop'
p240
I10
sS'405'
p241
I10
sS'production'
p242
I20
sS'easier'
p243
I10
sS'overcome'
p244
I20
sS'interpretive'
p245
I10
sS'versus'
p246
I10
sS'then'
p247
I160
sS'them'
p248
I170
sS'remedy'
p249
I10
sS'combination'
p250
I10
sS'Royal'
p251
I10
sS'school'
p252
I10
sS'Analysis'
p253
I30
sS'Steps'
p254
I20
sS'they'
p255
I320
sS'blink'
p256
I10
sS'Brain-wave'
p257
I10
sS'structural'
p258
I330
sS'Control'
p259
I20
sS'represents'
p260
I100
sS'one-to-one'
p261
I10
sS'Indeed'
p262
I50
sS'reasonably'
p263
I10
sS'Four'
p264
I10
sS'2006/1985'
p265
I10
sS'victory'
p266
I10
sS'each'
p267
I120
sS'simplified'
p268
I10
sS'feeds'
p269
I10
sS'mean'
p270
I40
sS'p228'
p271
I10
sS'successively'
p272
I10
sS'evolve'
p273
I10
sS'series'
p274
I10
sS'computationalist'
p275
I10
sS'pictographs'
p276
I10
sS'principles'
p277
I150
sS'taught'
p278
I10
sS'extract'
p279
I50
sS'sounds'
p280
I10
sS'conjectures'
p281
I10
sS'Beitrag'
p282
I10
sS'networked'
p283
I10
sS'network'
p284
I50
sS'restricted'
p285
I50
sS'crucial'
p286
I10
sS'content'
p287
I50
sS'unrelated'
p288
I20
sS'adapt'
p289
I10
sS'reader'
p290
I30
sS'York/Chicago'
p291
I10
sS'foundation'
p292
I10
sS'Word'
p293
I20
sS'Zenil'
p294
I10
sS'associate'
p295
I10
sS'University'
p296
I140
sS'Gifted'
p297
I10
sS'little'
p298
I50
sS'free'
p299
I20
sS'standard'
p300
I40
sS'sensory'
p301
I30
sS'W'
p302
I10
sS'Observer'
p303
I10
sS'estimate'
p304
I40
sS'meditated'
p305
I10
sS'Studies'
p306
I10
sS'Paul'
p307
I20
sS'Cambridge'
p308
I110
sS'flow/circulation'
p309
I10
sS'created'
p310
I40
sS'starts'
p311
I10
sS'National'
p312
I10
sS'categorical'
p313
I10
sS'messages'
p314
I20
sS'days'
p315
I10
sS'creates'
p316
I30
sS'Computation'
p317
I160
sS'explicate'
p318
I30
sS'uses'
p319
I10
sS'XXVIIth'
p320
I10
sS'generalizations'
p321
I10
sS'speeds'
p322
I10
sS'purpose'
p323
I20
sS'already'
p324
I10
sS'Cooper'
p325
I40
sS'features'
p326
I70
sS'economists'
p327
I10
sS'researcher'
p328
I50
sS'primary'
p329
I20
sS'peculiarity'
p330
I10
sS'Usually'
p331
I10
sS'Buddhism'
p332
I20
sS'LO/0403186'
p333
I10
sS'another'
p334
I100
sS'hear'
p335
I10
sS'clarity'
p336
I10
sS'electronic'
p337
I40
sS'bottom-up'
p338
I10
sS'Congress'
p339
I10
sS'Academy'
p340
I40
sS'top'
p341
I10
sS'1637-1678'
p342
I10
sS'approximately'
p343
I20
sS'needed'
p344
I20
sS'observations'
p345
I40
sS'Braunschweig'
p346
I10
sS'Press'
p347
I170
sS'B'
p348
I100
sS'5-16'
p349
I10
sS'tool'
p350
I10
sS'serve'
p351
I10
sS'lower'
p352
I10
sS'rejected'
p353
I10
sS'wisdom'
p354
I20
sS'selfoptimization'
p355
I10
sS'No.6'
p356
I10
sS'No.1'
p357
I20
sS'semasiologically'
p358
I20
sS'self-organizing'
p359
I10
sS'peculiar'
p360
I20
sS'begins'
p361
I10
sS'Set'
p362
I10
sS'fabric'
p363
I30
sS'Data'
p364
I30
sS'programs'
p365
I40
sS'tree'
p366
I10
sS'micro-scale'
p367
I10
sS'matter'
p368
I210
sS'classes'
p369
I20
sS'iron'
p370
I10
sS'joy'
p371
I10
sS'evaporated'
p372
I10
sS'fashion'
p373
I10
sS'sees'
p374
I10
sS'structure-process'
p375
I10
sS'membranes'
p376
I10
sS'modern'
p377
I80
sS'mind'
p378
I90
sS'spectrum'
p379
I10
sS'talking'
p380
I20
sS'inherit'
p381
I10
sS'seen'
p382
I10
sS'483-549'
p383
I10
sS'contents'
p384
I20
sS'sub-symbolic'
p385
I10
sS'Then'
p386
I30
sS'traditionally'
p387
I10
sS'realm'
p388
I10
sS'1969'
p389
I90
sS'concrete'
p390
I10
sS'convenient'
p391
I10
sS'latter'
p392
I10
sS'1967'
p393
I50
sS'1960'
p394
I20
sS'communicative'
p395
I10
sS'Democritus'
p396
I10
sS'materials'
p397
I10
sS'They'
p398
I20
sS'indexed'
p399
I10
sS'reversed'
p400
I10
sS'machinery'
p401
I30
sS'//www.tbiomed.com/content/8/1/4'
p402
I10
sS'Brendal'
p403
I10
sS'though'
p404
I20
sS'information-content'
p405
I10
sS'object'
p406
I230
sS'letter'
p407
I20
sS'claims'
p408
I20
sS'Biological'
p409
I30
sS'Luck'
p410
I20
sS'potency'
p411
I10
sS'observation'
p412
I30
sS'it/he/she'
p413
I10
sS'medical'
p414
I10
sS'Dynamic'
p415
I30
sS'inferred'
p416
I20
sS'points'
p417
I10
sS'principle'
p418
I140
sS'notion'
p419
I80
sS'came'
p420
I10
sS'saying'
p421
I20
sS'Kiev'
p422
I20
sS'random'
p423
I10
sS'implying'
p424
I20
sS'radio'
p425
I20
sS'solutions'
p426
I10
sS'Vehicle'
p427
I10
sS'European'
p428
I10
sS'Photographs'
p429
I10
sS'touches'
p430
I10
sS'resemblance'
p431
I10
sS'proposed'
p432
I30
sS'spite'
p433
I10
sS'implementation'
p434
I10
sS'situations'
p435
I40
sS'explain'
p436
I60
sS'Conclusions'
p437
I10
sS'info-computationalism'
p438
I30
sS'specify'
p439
I10
sS'Others'
p440
I10
sS'adequate'
p441
I110
sS'do'
p442
I290
sS'Remark'
p443
I20
sS'Netherlands'
p444
I10
sS'Cognitive'
p445
I60
sS'10'
p446
I40
sS'Nevertheless'
p447
I80
sS'de'
p448
I70
sS'6,7,8'
p449
I10
sS'perceive'
p450
I30
sS'7-10'
p451
I10
sS'criticized'
p452
I10
sS'congruent'
p453
I10
sS'mention'
p454
I10
sS'Malardalen'
p455
I10
sS'X'
p456
I130
sS'Beliefs'
p457
I10
sS'Realism'
p458
I30
sS'Sci.'
p459
I10
sS'Ecology'
p460
I20
sS'countries'
p461
I10
sS'fields'
p462
I90
sS'method'
p463
I20
sS'Klostermann'
p464
I10
sS'implication'
p465
I10
sS'linguist'
p466
I10
sS'Nets'
p467
I10
sS':'
p468
I1170
sS'observer'
p469
I120
sS'habit'
p470
I10
sS'H.C.'
p471
I10
sS'Internet'
p472
I10
sS'emergent'
p473
I20
sS'observed'
p474
I50
sS'depends'
p475
I90
sS'result'
p476
I130
sS'O6'
p477
I10
sS"'informare"
p478
I10
sS'Existing'
p479
I10
sS'best'
p480
I30
sS'subject'
p481
I60
sS'Biology'
p482
I10
sS'said'
p483
I10
sS'capacity'
p484
I90
sS'Assayer'
p485
I20
sS'analyze'
p486
I20
sS'08'
p487
I10
sS'artificial'
p488
I30
sS'pressures'
p489
I10
sS'finger'
p490
I10
sS'Receiver/Receptor'
p491
I20
sS'approach'
p492
I190
sS'quantities'
p493
I10
sS'discovery'
p494
I50
sS'preserve'
p495
I20
sS'accord'
p496
I20
sS'triplet'
p497
I10
sS'terms'
p498
I60
sS'positron'
p499
I10
sS'nature'
p500
I230
sS'confusion'
p501
I20
sS'physicist'
p502
I40
sS'Saussure'
p503
I60
sS'extent'
p504
I20
sS'modeling'
p505
I10
sS'Otherwise'
p506
I10
sS'suggested'
p507
I50
sS'received'
p508
I10
sS'essentially'
p509
I50
sS'psychologists'
p510
I20
sS'set-theoretical'
p511
I10
sS'uncertainty'
p512
I30
sS'Fredkin'
p513
I40
sS'papyrus'
p514
I10
sS'incomplete'
p515
I10
sS'Computer'
p516
I80
sS'und'
p517
I10
sS'une'
p518
I10
sS'receives'
p519
I20
sS'receiver'
p520
I70
sS'distinction'
p521
I80
sS'contribution'
p522
I20
sS'argue'
p523
I40
sS'confronted'
p524
I10
sS'asked'
p525
I10
sS'monograph'
p526
I10
sS'exhibit'
p527
I10
sS'appeared'
p528
I10
sS'had'
p529
I40
sS'2nd'
p530
I20
sS'active'
p531
I50
sS'written'
p532
I80
sS'comprehension'
p533
I30
sS'variety'
p534
I20
sS'wider'
p535
I20
sS'mc2'
p536
I10
sS'speak'
p537
I60
sS'Perception'
p538
I10
sS'C.'
p539
I110
sS'basis'
p540
I50
sS'Whole'
p541
I10
sS'three'
p542
I200
sS'been'
p543
I180
sS'.'
p544
I12270
sS'3-13'
p545
I10
sS'extraction'
p546
I50
sS'much'
p547
I150
sS'G.G'
p548
I10
sS'Physik'
p549
I10
sS'basic'
p550
I120
sS'expected'
p551
I10
sS'flexible'
p552
I30
sS'exactness'
p553
I10
sS'G.M'
p554
I10
sS'obtained'
p555
I10
sS'life'
p556
I60
sS'families'
p557
I10
sS'R.L'
p558
I10
sS'droplets'
p559
I10
sS'CA'
p560
I10
sS'Berkeley'
p561
I10
sS'Flow'
p562
I30
sS'Niels'
p563
I10
sS'168'
p564
I10
sS'161'
p565
I10
sS'applied'
p566
I60
sS'Co'
p567
I20
sS'formalization'
p568
I10
sS'Process'
p569
I10
sS'Taschenbuch'
p570
I10
sS'air'
p571
I10
sS'employ'
p572
I10
sS"Galileo's"
p573
I10
sS'property'
p574
I90
sS'k'
p575
I10
sS'procedure'
p576
I10
sS'significations'
p577
I10
sS'changed'
p578
I40
sS'On'
p579
I80
sS'is'
p580
I5260
sS'it'
p581
I1420
sS'Conceptions'
p582
I20
sS'experts'
p583
I10
sS'in'
p584
I3560
sS'mouse'
p585
I10
sS'if'
p586
I280
sS'containing'
p587
I30
sS'suggest'
p588
I20
sS'make'
p589
I90
sS'Oh'
p590
I10
sS'V.'
p591
I40
sS'//www.worldcat.org/title/everything-must-go-metaphysicsnaturalised/oclc/84150765'
p592
I10
sS'complex'
p593
I100
sS'incorrectly'
p594
I10
sS'Imaginary'
p595
I10
sS'several'
p596
I60
sS'grows'
p597
I20
sS'independent'
p598
I20
sS'Springer'
p599
I50
sS'numerical'
p600
I30
sS'hand'
p601
I20
sS'Angeles'
p602
I20
sS'Morris'
p603
I30
sS'Contrary'
p604
I10
sS'characters'
p605
I10
sS'Y'
p606
I10
sS'tune'
p607
I10
sS'117-131'
p608
I10
sS'kept'
p609
I20
sS'1979'
p610
I20
sS'1978'
p611
I40
sS'1977'
p612
I40
sS'1976'
p613
I30
sS'1974'
p614
I20
sS'Mind'
p615
I50
sS'1972'
p616
I10
sS'1971'
p617
I30
sS'1970'
p618
I50
sS'Trends'
p619
I10
sS'contact'
p620
I10
sS'Computable'
p621
I10
sS'greatest'
p622
I10
sS'Burgin'
p623
I350
sS'the'
p624
I10880
sS'paradigm'
p625
I20
sS'possesses'
p626
I20
sS'unified'
p627
I40
sS'agency'
p628
I10
sS'just'
p629
I40
sS'sentence'
p630
I20
sS'Fixing'
p631
I10
sS'proposes'
p632
I10
sS'identify'
p633
I20
sS'Hodges'
p634
I20
sS'human'
p635
I140
sS'facts'
p636
I60
sS'yet'
p637
I40
sS'functionally'
p638
I10
sS'previous'
p639
I20
sS'Inevitably'
p640
I10
sS'enters'
p641
I10
sS'character'
p642
I40
sS'Springer-Verlag'
p643
I10
sS'//cs.gmu.edu/cne/pjd/PUBS/CACMcols/cacmJul07.pdf'
p644
I10
sS'passive'
p645
I30
sS'Framework'
p646
I10
sS'belongs'
p647
I20
sS'transformed'
p648
I10
sS'board'
p649
I10
sS'easy'
p650
I20
sS'technological'
p651
I20
sS'has'
p652
I640
sS'nonaccidental'
p653
I20
sS'adopts'
p654
I10
sS'mocked'
p655
I10
sS'Toffoli'
p656
I10
sS'survival'
p657
I10
sS'possible'
p658
I400
sS'structurale'
p659
I10
sS'cultural'
p660
I10
sS'unification'
p661
I10
sS'background'
p662
I20
sS'pertinent'
p663
I10
sS'massively'
p664
I10
sS'Oxford/New'
p665
I10
sS'neutrons'
p666
I10
sS'Spurrett'
p667
I10
sS'59'
p668
I10
sS'58'
p669
I10
sS'Vogel'
p670
I10
sS'Also'
p671
I10
sS'55'
p672
I10
sS'54'
p673
I10
sS'57'
p674
I10
sS'gifted'
p675
I10
sS'51'
p676
I30
sS'50'
p677
I30
sS'53'
p678
I20
sS'52'
p679
I40
sS'specific'
p680
I160
sS'informative'
p681
I40
sS'esthetics'
p682
I10
sS'steps'
p683
I10
sS'officer'
p684
I20
sS'arbitrary'
p685
I20
sS'Further'
p686
I10
sS'facets'
p687
I10
sS'antique'
p688
I10
sS'beneficial'
p689
I10
sS'56'
p690
I10
sS'deal'
p691
I20
sS'people'
p692
I280
sS'sends'
p693
I10
sS'successfully'
p694
I20
sS'deaf'
p695
I10
sS'somehow'
p696
I10
sS'Extraction'
p697
I10
sS'dear'
p698
I20
sS'pain'
p699
I10
sS'indirect'
p700
I20
sS'univocity'
p701
I20
sS'intellect'
p702
I10
sS'embodied'
p703
I10
sS'Life'
p704
I30
sS'sociology'
p705
I10
sS'for'
p706
I1430
sS'Naturalist'
p707
I10
sS'Fraenkel'
p708
I20
sS'everything'
p709
I60
sS'Aufbau'
p710
I10
sS'asking'
p711
I20
sS'Let'
p712
I70
sS'object/thing/denotat'
p713
I10
sS'participation'
p714
I20
sS'He'
p715
I60
sS'Singapore'
p716
I20
sS'School'
p717
I10
sS'meanings'
p718
I30
sS'fish'
p719
I10
sS'corn'
p720
I10
sS'Hogarth'
p721
I10
sS'Baeyer'
p722
I20
sS'301-322'
p723
I10
sS'Sweden'
p724
I10
sS'finding'
p725
I10
sS'properties'
p726
I160
sS'First'
p727
I10
sS'zur'
p728
I10
sS'Leibniz'
p729
I10
sS'acquire'
p730
I20
sS'Image'
p731
I10
sS'metrical'
p732
I40
sS'accepts'
p733
I10
sS'Causal'
p734
I10
sS'FIS'
p735
I10
sS'327-359'
p736
I10
sS'H.'
p737
I10
sS'terminology'
p738
I10
sS'own'
p739
I50
sS'Games'
p740
I10
sS'automatically'
p741
I10
sS'Verlag'
p742
I20
sS'statements'
p743
I10
sS'Knowledge'
p744
I110
sS'presence'
p745
I30
sS'Rovelli'
p746
I30
sS'puzzle'
p747
I10
sS'Landweber'
p748
I10
sS'intellectual'
p749
I10
sS'down'
p750
I20
sS'beings'
p751
I10
sS'right'
p752
I10
sS'magazines'
p753
I10
sS'doctrine'
p754
I10
sS'balanced'
p755
I30
sS'refined'
p756
I20
sS'methods'
p757
I40
sS'existed'
p758
I40
sS'Belief'
p759
I10
sS'abstractions'
p760
I30
sS'support'
p761
I40
sS'assimilating'
p762
I10
sS'Rechnender'
p763
I20
sS'transform'
p764
I10
sS'fight'
p765
I10
sS'Mechanistic'
p766
I10
sS'physicists'
p767
I80
sS'way'
p768
I180
sS'greatness'
p769
I10
sS'resulted'
p770
I10
sS'was'
p771
I170
sS'synthesis'
p772
I20
sS'lowest'
p773
I20
sS'multiscale'
p774
I10
sS'head'
p775
I30
sS'medium'
p776
I20
sS'DNA'
p777
I20
sS'form'
p778
I320
sS'so-called'
p779
I30
sS'becoming'
p780
I10
sS'differences'
p781
I30
sS'denoting'
p782
I10
sS'thesaurus'
p783
I50
sS'System'
p784
I10
sS'taken'
p785
I10
sS'heat'
p786
I10
sS'understandable'
p787
I10
sS'satisfactorily'
p788
I10
sS'true'
p789
I30
sS'P.C.'
p790
I20
sS'portions'
p791
I30
sS'builds'
p792
I30
sS'B.'
p793
I40
sS'explicates'
p794
I30
sS'distinguishability'
p795
I10
sS'devices'
p796
I60
sS'C.F'
p797
I20
sS'C.G'
p798
I10
sS'Engineering'
p799
I10
sS'Subjectivity'
p800
I10
sS'cosmos'
p801
I10
sS'latch'
p802
I10
sS'Electronic'
p803
I10
sS'explicated'
p804
I10
sS'semiologists'
p805
I10
sS'proved'
p806
I20
sS'Publishing'
p807
I10
sS"'1"
p808
I10
sS"'0"
p809
I10
sS'Introduction'
p810
I20
sS'metaphysical'
p811
I20
sS'abstract'
p812
I120
sS'twenty'
p813
I10
sS'textbook'
p814
I50
sS'evidence'
p815
I90
sS"''"
p816
I1000
sS'meaning/'
p817
I10
sS'Potential'
p818
I10
sS'exist'
p819
I120
sS'signification'
p820
I10
sS'Berne'
p821
I10
sS'physical'
p822
I530
sS'etymologischen'
p823
I10
sS'self-protection'
p824
I10
sS'no'
p825
I190
sS'whereas'
p826
I10
sS'when'
p827
I420
sS'Possible'
p828
I10
sS'reality'
p829
I230
sS'interested'
p830
I10
sS'role'
p831
I80
sS'digital'
p832
I90
sS'denotation'
p833
I10
sS'smell'
p834
I10
sS'realize'
p835
I10
sS'node'
p836
I10
sS'picture'
p837
I50
sS'E'
p838
I50
sS'superposition'
p839
I10
sS'models'
p840
I120
sS'Later'
p841
I10
sS'convincing'
p842
I10
sS'concurrent'
p843
I10
sS'or/and'
p844
I10
sS'Frieden'
p845
I20
sS'trilemma'
p846
I20
sS'professional'
p847
I10
sS'variable'
p848
I10
sS'Triad'
p849
I30
sS'died'
p850
I20
sS'Tracts'
p851
I20
sS'longer'
p852
I20
sS'assume'
p853
I30
sS'Charles'
p854
I30
sS'Principles'
p855
I40
sS'together'
p856
I10
sS'Second'
p857
I20
sS'reception'
p858
I10
sS'time'
p859
I380
sS'Encyclopedia'
p860
I10
sS'quantity'
p861
I70
sS'Contributions'
p862
I10
sS'restored'
p863
I10
sS'concept'
p864
I340
sS'global'
p865
I70
sS'rod'
p866
I60
sS'focus'
p867
I10
sS'theaters'
p868
I10
sS'computation'
p869
I310
sS'skin'
p870
I10
sS'involved'
p871
I10
sS'Today'
p872
I10
sS'discern'
p873
I30
sS'depend'
p874
I40
sS'fancies'
p875
I20
sS'father'
p876
I10
sS'255287'
p877
I10
sS'environment'
p878
I50
sS'0'
p879
I10
sS'2004a'
p880
I30
sS'compensate'
p881
I10
sS'promoting'
p882
I10
sS'Bayer'
p883
I10
sS'eliminate'
p884
I10
sS'1991'
p885
I60
sS'Bateson'
p886
I40
sS'broadly'
p887
I10
sS'seemingly'
p888
I10
sS'choice'
p889
I20
sS'additional'
p890
I10
sS'1995'
p891
I110
sS'emphasized'
p892
I10
sS'exact'
p893
I70
sS'Chemical'
p894
I10
sS'perceived'
p895
I20
sS'level'
p896
I220
sS'did'
p897
I80
sS'discrete'
p898
I100
sS'knowledge-dependent'
p899
I10
sS'inscribed'
p900
I20
sS'O2g'
p901
I40
sS'organon'
p902
I10
sS'O2c'
p903
I10
sS'O2a'
p904
I30
sS'spiritual'
p905
I10
sS'thinkers'
p906
I20
sS'p.13'
p907
I10
sS'dealing'
p908
I10
sS'Sloman'
p909
I10
sS'M.'
p910
I280
sS'obsolete'
p911
I10
sS'sign'
p912
I300
sS'cost'
p913
I10
sS'Heritage'
p914
I30
sS'substitutes'
p915
I10
sS'Lowe'
p916
I20
sS'appear'
p917
I10
sS'Wolfgang'
p918
I10
sS'uniform'
p919
I10
sS'current'
p920
I30
sS'sequential'
p921
I20
sS'Popper'
p922
I60
sS'goes'
p923
I30
sS'supplies'
p924
I10
sS'paradoxical'
p925
I10
sS'Heisenberg'
p926
I30
sS'jury'
p927
I10
sS'heavily'
p928
I10
sS'understanding'
p929
I210
sS'water'
p930
I10
sS'53-70'
p931
I10
sS'groups'
p932
I20
sS'English'
p933
I60
sS'based'
p934
I120
sS'['
p935
I760
sS'teaches'
p936
I10
sS'teacher'
p937
I100
sS'change'
p938
I230
sS'wait'
p939
I10
sS'passengers'
p940
I10
sS'Computational'
p941
I30
sS'MA'
p942
I20
sS'R.L.'
p943
I10
sS'studied'
p944
I80
sS'Proceedings'
p945
I60
sS'commonly'
p946
I10
sS'Legacy'
p947
I10
sS'Entropy'
p948
I10
sS'pictorial'
p949
I10
sS'usually'
p950
I30
sS'triad'
p951
I350
sS'studies'
p952
I60
sS'metron'
p953
I20
sS'tasks'
p954
I10
sS'love'
p955
I20
sS'Monographs.'
p956
I10
sS'merely'
p957
I20
sS'When'
p958
I80
sS'logical'
p959
I50
sS'Friedrich'
p960
I20
sS'flexibility'
p961
I10
sS'contradictions'
p962
I40
sS'Therefore'
p963
I10
sS'subjectivity'
p964
I40
sS'or'
p965
I1400
sS'working'
p966
I10
sS'positive'
p967
I40
sS'emits'
p968
I10
sS'Fluckiger'
p969
I10
sS'live'
p970
I20
sS'going'
p971
I20
sS'opposed'
p972
I10
sS'427-446'
p973
I10
sS'memory'
p974
I320
sS'scope'
p975
I20
sS'theoretical'
p976
I110
sS'today'
p977
I30
sS'``'
p978
I720
sS'molecules'
p979
I60
sS'Bem'
p980
I40
sS'These'
p981
I70
sS'Orlando'
p982
I10
sS'Dependence'
p983
I10
sS'interacted'
p984
I10
sS'visual'
p985
I20
sS'Palgrave'
p986
I10
sS'Godel'
p987
I10
sS'cases'
p988
I70
sS'Reality'
p989
I40
sS'Blackwell'
p990
I10
sS'organizations'
p991
I10
sS'German'
p992
I10
sS'inertial'
p993
I10
sS'modified'
p994
I10
sS'values'
p995
I10
sS'can'
p996
I640
sS'cal'
p997
I10
sS'following'
p998
I160
sS'Our'
p999
I10
sS'logon'
p1000
I30
sS'Abstract'
p1001
I20
sS'most'
p1002
I120
sS'claim'
p1003
I40
sS'perceivable'
p1004
I20
sS'reflector'
p1005
I10
sS'figure'
p1006
I10
sS'frogs'
p1007
I10
sS'attribute'
p1008
I10
sS'Kegan'
p1009
I10
sS'confused'
p1010
I10
sS'agent'
p1011
I170
sS'topic'
p1012
I10
sS'heard'
p1013
I20
sS'Boisot'
p1014
I10
sS'performed'
p1015
I30
sS'237'
p1016
I10
sS'evidently'
p1017
I10
sS'listens'
p1018
I10
sS'gordana.dodig-crnkovic'
p1019
I10
sS'discussion'
p1020
I10
sS'Munich'
p1021
I20
sS'write'
p1022
I50
sS'immune'
p1023
I10
sS's.'
p1024
I10
sS'pure'
p1025
I10
sS'parameter'
p1026
I120
sS'divides'
p1027
I20
sS'economy'
p1028
I10
sS'pancomputationalist'
p1029
I20
sS'morphological'
p1030
I50
sS'coming'
p1031
I20
sS'huge'
p1032
I10
sS'may'
p1033
I220
sS'STM'
p1034
I10
sS'applications'
p1035
I20
sS'produce'
p1036
I50
sS'Martin'
p1037
I20
sS'such'
p1038
I590
sS'Model'
p1039
I30
sS'data'
p1040
I240
sS'Metaphors'
p1041
I10
sS'man'
p1042
I10
sS'natural'
p1043
I360
sS'dynamical'
p1044
I10
sS'whenever'
p1045
I30
sS'6th'
p1046
I10
sS'syntactic'
p1047
I20
sS'explicit'
p1048
I30
sS"'to"
p1049
I50
sS'Eds'
p1050
I50
sS'so'
p1051
I150
sS'Machines'
p1052
I20
sS'representation'
p1053
I290
sS'Sorbi'
p1054
I20
sS'se'
p1055
I20
sS'typical'
p1056
I10
sS'Bantam'
p1057
I10
sS'constituents'
p1058
I10
sS'pointed'
p1059
I20
sS'ideengeschichtlichen'
p1060
I10
sS'entity'
p1061
I40
sS'stability'
p1062
I10
sS'brain'
p1063
I130
sS'experiments'
p1064
I50
sS'statistical'
p1065
I40
sS'differs'
p1066
I40
sS'Ri'
p1067
I10
sS'accepted'
p1068
I10
sS'derive'
p1069
I10
sS'group'
p1070
I50
sS'monitor'
p1071
I30
sS'Transactions'
p1072
I10
sS'interesting'
p1073
I40
sS'Locality'
p1074
I10
sS'encompasses'
p1075
I30
sS'Thesaurus'
p1076
I20
sS'decreases'
p1077
I10
sS'forms'
p1078
I80
sS'static'
p1079
I20
sS'continue'
p1080
I10
sS'constitutes'
p1081
I20
sS'World'
p1082
I270
sS'main'
p1083
I140
sS'happened'
p1084
I20
sS'correspondence'
p1085
I40
sS'within'
p1086
I10
sS'thereby'
p1087
I10
sS'regularities'
p1088
I20
sS'evolution'
p1089
I20
sS'introduce'
p1090
I20
sS'conceptualizations'
p1091
I20
sS'Precis'
p1092
I10
sS'1956'
p1093
I50
sS'Gordon'
p1094
I20
sS'semiotics'
p1095
I50
sS'not'
p1096
I1150
sS'arithmetics'
p1097
I10
sS'R.'
p1098
I230
sS'now'
p1099
I20
sS'ordinary'
p1100
I20
sS'nor'
p1101
I20
sS'possess'
p1102
I10
sS'biomolecular'
p1103
I10
sS'term'
p1104
I180
sS'Platonic'
p1105
I30
sS'name'
p1106
I120
sS'Everything'
p1107
I10
sS'cognition'
p1108
I20
sS'establishing'
p1109
I10
sS'possibilities'
p1110
I10
sS'REFERENCES'
p1111
I10
sS'entirely'
p1112
I20
sS'naturalization'
p1113
I10
sS'realism'
p1114
I10
sS'epistemologically'
p1115
I10
sS'domain'
p1116
I20
sS'difference.'
p1117
I10
sS'Implementation'
p1118
I10
sS'ed'
p1119
I20
sS'revised'
p1120
I10
sS'conventions'
p1121
I10
sS'Moriond'
p1122
I10
sS'year'
p1123
I10
sS'et'
p1124
I20
sS'naming'
p1125
I10
sS'intended'
p1126
I20
sS'Medical'
p1127
I10
sS'living'
p1128
I60
sS'ultimately'
p1129
I10
sS'space'
p1130
I90
sS'Michigan'
p1131
I10
sS'communicating'
p1132
I10
sS'prophesized'
p1133
I10
sS'looking'
p1134
I20
sS'contained'
p1135
I10
sS'investigation'
p1136
I20
sS'rational'
p1137
I20
sS'suggesting'
p1138
I20
sS'formula'
p1139
I70
sS'eidetic'
p1140
I10
sS'objectivity'
p1141
I10
sS'correct'
p1142
I10
sS'shows'
p1143
I40
sS'inevitably'
p1144
I20
sS'earlier'
p1145
I20
sS'Theater'
p1146
I10
sS'theory'
p1147
I620
sS'mechanisms'
p1148
I20
sS'possibility'
p1149
I30
sS'quite'
p1150
I10
sS'dependencies'
p1151
I10
sS'besides'
p1152
I10
sS'Existential'
p1153
I30
sS'axioms'
p1154
I20
sS'387-406'
p1155
I10
sS'care'
p1156
I10
sS'language'
p1157
I80
sS'Being'
p1158
I20
sS'transition'
p1159
I10
sS'Sign'
p1160
I10
sS'motion'
p1161
I20
sS'thing'
p1162
I110
sS'butterflies'
p1163
I10
sS'place'
p1164
I70
sS'Wider'
p1165
I10
sS'think'
p1166
I50
sS'first'
p1167
I200
sS'emotion'
p1168
I20
sS'intuition'
p1169
I10
sS'constantly'
p1170
I30
sS'saving'
p1171
I10
sS'Crnkovic'
p1172
I60
sS'conform'
p1173
I10
sS'There'
p1174
I90
sS'symbolic'
p1175
I90
sS'one'
p1176
I280
sS'reductionism'
p1177
I10
sS'XIII'
p1178
I10
sS'cybernetics'
p1179
I30
sS'specifically'
p1180
I10
sS'directly'
p1181
I40
sS'comprises'
p1182
I20
sS'impossible'
p1183
I40
sS'message'
p1184
I70
sS'Publ'
p1185
I10
sS'computed'
p1186
I20
sS'given'
p1187
I110
sS'necessarily'
p1188
I20
sS'silent'
p1189
I20
sS'Investigations'
p1190
I10
sS'structured'
p1191
I20
sS'Problems'
p1192
I10
sS'indicate'
p1193
I10
sS'2'
p1194
I300
sS'Semiotics'
p1195
I10
sS'Such'
p1196
I70
sS'structures'
p1197
I510
sS'speaking'
p1198
I20
sS'gives'
p1199
I120
sS'eyes'
p1200
I10
sS'mostly'
p1201
I20
sS'Mozart'
p1202
I10
sS'brains'
p1203
I20
sS'continuous'
p1204
I90
sS'proving'
p1205
I10
sS'Diego/New'
p1206
I10
sS'Kurt'
p1207
I10
sS'flowers'
p1208
I10
sS'representing'
p1209
I40
sS'than'
p1210
I200
sS'intrinsically'
p1211
I10
sS'History'
p1212
I10
sS'11'
p1213
I40
sS'wide'
p1214
I10
sS'television'
p1215
I10
sS'12'
p1216
I60
sS'15'
p1217
I50
sS'14'
p1218
I40
sS'17'
p1219
I50
sS'16'
p1220
I60
sS'19'
p1221
I40
sS'18'
p1222
I40
sS'transferred'
p1223
I10
sS'modelled'
p1224
I30
sS'Roederer'
p1225
I40
sS'future'
p1226
I10
sS'were'
p1227
I80
sS'posit'
p1228
I10
sS'accessed'
p1229
I20
sS'outcome'
p1230
I20
sS'Super-Recursive'
p1231
I10
sS'and'
p1232
I5290
sS'Cours'
p1233
I10
sS'non-algorithmic'
p1234
I10
sS'generality'
p1235
I10
sS'Cherry'
p1236
I10
sS'dynamically'
p1237
I10
sS'turned'
p1238
I10
sS'argument'
p1239
I20
sS'referer=brief_results'
p1240
I10
sS'say'
p1241
I120
sS'Boltzmann-Planck'
p1242
I10
sS'Main'
p1243
I10
sS'any'
p1244
I280
sS'invite'
p1245
I10
sS'Do'
p1246
I10
sS'subsystems'
p1247
I10
sS'computationally'
p1248
I10
sS'answering'
p1249
I20
sS'ideas'
p1250
I280
sS'Forester'
p1251
I10
sS'note'
p1252
I10
sS'sciences'
p1253
I120
sS'ideal'
p1254
I20
sS'potential'
p1255
I40
sS'take'
p1256
I120
sS'Half'
p1257
I10
sS'objective'
p1258
I70
sS'destroy'
p1259
I10
sS'Jovanovich'
p1260
I10
sS'Decimal'
p1261
I10
sS'channel'
p1262
I70
sS'ultimate'
p1263
I10
sS'formulas'
p1264
I20
sS'begin'
p1265
I10
sS'sure'
p1266
I10
sS'altered'
p1267
I10
sS'Name'
p1268
I10
sS'Unlike'
p1269
I10
sS'opposite'
p1270
I10
sS'track'
p1271
I30
sS'algebraic'
p1272
I10
sS'satisfying'
p1273
I10
sS'importantly'
p1274
I20
sS'printed'
p1275
I20
sS'formulae'
p1276
I10
sS'pair'
p1277
I10
sS']'
p1278
I760
sS'icon'
p1279
I60
sS'D.'
p1280
I60
sS'mesureles'
p1281
I10
sS'Beyond'
p1282
I10
sS'especially'
p1283
I30
sS'considered'
p1284
I200
sS'behaves'
p1285
I10
sS'later'
p1286
I10
sS'implications'
p1287
I10
sS'//www.mdpi.net'
p1288
I10
sS'Amsterdam'
p1289
I20
sS'Hofkirchner'
p1290
I100
sS'laws'
p1291
I70
sS'precise'
p1292
I10
sS'show'
p1293
I30
sS'Once'
p1294
I10
sS'contemporary'
p1295
I70
sS'Research'
p1296
I10
sS'discovered'
p1297
I60
sS'//cs.utk.edu/pub/TechReports/2011/ut-cs-11-681.pdf'
p1298
I10
sS'Role'
p1299
I10
sS'Systems'
p1300
I70
sS'paradoxes'
p1301
I10
sS'Publishers'
p1302
I10
sS'We'
p1303
I110
sS'title'
p1304
I10
sS'homomorphic'
p1305
I10
sS'3'
p1306
I260
sS'crime'
p1307
I30
sS'Subconscious'
p1308
I10
sS'only'
p1309
I490
sS'wood'
p1310
I20
sS'mdh.se'
p1311
I10
sS'essence'
p1312
I70
sS'Fisher'
p1313
I20
sS'Westview'
p1314
I10
sS'Applied'
p1315
I10
sS'Assets'
p1316
I10
sS'get'
p1317
I90
sS'H'
p1318
I60
sS'Annual'
p1319
I10
sS'truly'
p1320
I10
sS'define'
p1321
I30
sS'Magazine'
p1322
I10
sS'ionized'
p1323
I10
sS'progress'
p1324
I10
sS'Similar'
p1325
I10
sS'secondary'
p1326
I30
sS'prime'
p1327
I10
sS'resource'
p1328
I20
sS'Benthem'
p1329
I10
sS'W.'
p1330
I60
sS'pancomputationalism/naturalist'
p1331
I10
sS'Intellectual'
p1332
I10
sS'summary'
p1333
I20
sS'scientist'
p1334
I10
sS'Shannon'
p1335
I30
sS'Riedel'
p1336
I10
sS'uncover'
p1337
I10
sS'Education'
p1338
I20
sS'where'
p1339
I150
sS'16th'
p1340
I20
sS'vision'
p1341
I10
sS'Arbor'
p1342
I10
sS'burst'
p1343
I10
sS'subatomic'
p1344
I50
sS'committed'
p1345
I10
sS'relative'
p1346
I70
sS'declares'
p1347
I10
sS'Relational'
p1348
I10
sS'E.E.'
p1349
I10
sS'impressions'
p1350
I10
sS'concern'
p1351
I10
sS'detect'
p1352
I10
sS'That'
p1353
I80
sS'ways'
p1354
I90
sS'definite'
p1355
I60
sS'representatives'
p1356
I10
sS'Wisdom'
p1357
I10
sS'boundaries'
p1358
I10
sS'Berlin'
p1359
I10
sS'between'
p1360
I400
sS'reading'
p1361
I30
sS'verification'
p1362
I10
sS'Natural'
p1363
I180
sS'Hanser'
p1364
I10
sS'originated'
p1365
I20
sS'screen'
p1366
I30
sS'suppresses'
p1367
I10
sS'inseparable'
p1368
I10
sS'rapidly'
p1369
I10
sS'Each'
p1370
I70
sS"Hodges'"
p1371
I10
sS'article'
p1372
I20
sS'come'
p1373
I110
sS'logons'
p1374
I20
sS'originates'
p1375
I10
sS'talented'
p1376
I10
sS'C'
p1377
I210
sS'many'
p1378
I280
sS'correctly'
p1379
I10
sS'according'
p1380
I50
sS'Paty'
p1381
I10
sS'Through'
p1382
I20
sS'expression'
p1383
I10
sS'Everyday'
p1384
I10
sS'comes'
p1385
I80
sS'among'
p1386
I40
sS'solving'
p1387
I10
sS'Embodiment'
p1388
I30
sS'color'
p1389
I10
sS'effective'
p1390
I20
sS'period'
p1391
I10
sS'Note'
p1392
I50
sS'61'
p1393
I10
sS'62'
p1394
I10
sS'63'
p1395
I10
sS'64'
p1396
I20
sS'65'
p1397
I10
sS'66'
p1398
I10
sS'68'
p1399
I10
sS'69'
p1400
I10
sS'considers'
p1401
I20
sS'considering'
p1402
I10
sS'epistemology'
p1403
I10
sS'combines'
p1404
I10
sS'capable'
p1405
I20
sS'Turing'
p1406
I200
sS'computing'
p1407
I370
sS'informed'
p1408
I20
sS'But'
p1409
I10
sS'defined'
p1410
I120
sS'triadic'
p1411
I20
sS'undermine'
p1412
I10
sS'bio-computing'
p1413
I10
sS'technical'
p1414
I10
sS'hardly'
p1415
I20
sS'direction'
p1416
I20
sS'enable'
p1417
I10
sS'formed'
p1418
I20
sS'Together'
p1419
I10
sS'observers'
p1420
I10
sS'external'
p1421
I10
sS'stems'
p1422
I10
sS'realities'
p1423
I10
sS'Biosystems'
p1424
I10
sS'case'
p1425
I220
sS'Kenneth'
p1426
I10
sS'developing'
p1427
I10
sS'these'
p1428
I270
sS'isolated'
p1429
I20
sS'explication'
p1430
I20
sS"n't"
p1431
I20
sS'Sloane'
p1432
I10
sS'Infological'
p1433
I20
sS'transactions'
p1434
I10
sS'promising'
p1435
I10
sS'Quantum'
p1436
I30
sS'situation'
p1437
I270
sS'Open'
p1438
I10
sS'informationalism'
p1439
I10
sS'Additional'
p1440
I10
sS'characteristics'
p1441
I50
sS'epistemological'
p1442
I10
sS'M.H'
p1443
I10
sS'incompleteness'
p1444
I10
sS'Butterworths'
p1445
I10
sS'non-material'
p1446
I20
sS'technology'
p1447
I30
sS'everyday'
p1448
I30
sS'binary'
p1449
I30
sS'different'
p1450
I460
sS'perhaps'
p1451
I10
sS'develop'
p1452
I10
sS'interdisciplinary'
p1453
I10
sS'pay'
p1454
I20
sS'With'
p1455
I10
sS'same'
p1456
I610
sS'speech'
p1457
I20
sS'arguments'
p1458
I10
sS'I.'
p1459
I10
sS'Design'
p1460
I10
sS'Info-Computational'
p1461
I20
sS'events'
p1462
I50
sS'status'
p1463
I10
sS'1949-2005'
p1464
I10
sS'extended'
p1465
I20
sS'trash'
p1466
I10
sS'Kantian'
p1467
I10
sS'I'
p1468
I270
sS'drives'
p1469
I40
sS'II'
p1470
I10
sS'constraining'
p1471
I10
sS'running'
p1472
I10
sS'changing'
p1473
I40
sS'Physics'
p1474
I70
sS'tradition'
p1475
I60
sS'IF'
p1476
I210
sS'implements'
p1477
I20
sS'theater'
p1478
I50
sS'undefined'
p1479
I10
sS'DVDs'
p1480
I10
sS'Is'
p1481
I20
sS'It'
p1482
I460
sS'know'
p1483
I200
sS'substantive'
p1484
I10
sS'peculiarities'
p1485
I10
sS'without'
p1486
I100
sS'solve'
p1487
I30
sS'components'
p1488
I90
sS'In'
p1489
I690
sS'model'
p1490
I120
sS'researchers'
p1491
I130
sS'If'
p1492
I100
sS'Arrow'
p1493
I40
sS'210'
p1494
I10
sS'being'
p1495
I160
sS'Oslo'
p1496
I10
sS'rest'
p1497
I20
sS'Andrew'
p1498
I20
sS'*-*'
p1499
I20
sS'ch'
p1500
I10
sS'aspect'
p1501
I40
sS'differentiation'
p1502
I10
sS'Molecular'
p1503
I10
sS'guides'
p1504
I10
sS'Maley'
p1505
I20
sS'quelle'
p1506
I10
sS'thinking'
p1507
I40
sS'photons'
p1508
I10
sS'seems'
p1509
I10
sS'Gauss'
p1510
I10
sS'meteorite'
p1511
I10
sS'discerns'
p1512
I10
sS'4'
p1513
I210
sS'Although'
p1514
I50
sS'Galois'
p1515
I10
sS'complements'
p1516
I10
sS'electrical'
p1517
I10
sS'extensive'
p1518
I10
sS'Muller'
p1519
I20
sS'Change'
p1520
I10
sS'real'
p1521
I130
sS'Mechanics'
p1522
I10
sS'aspects'
p1523
I20
sS'rules'
p1524
I10
sS'Many'
p1525
I20
sS'papers'
p1526
I10
sS'Algorithms'
p1527
I10
sS'UT-CS-11-681'
p1528
I10
sS'vacuum'
p1529
I10
sS'using'
p1530
I40
sS'execution'
p1531
I20
sS'recipient'
p1532
I90
sS'vague'
p1533
I10
sS'Operations'
p1534
I10
sS'accusation'
p1535
I20
sS'particle'
p1536
I50
sS'Sciences'
p1537
I50
sS'collective'
p1538
I10
sS'Belmont'
p1539
I10
sS'Contemporary'
p1540
I30
sS'inform-ation'
p1541
I10
sS'chamber'
p1542
I30
sS'audience'
p1543
I90
sS'London'
p1544
I80
sS't'
p1545
I60
sS'Thesis'
p1546
I10
sS'clay'
p1547
I10
sS'Moreover'
p1548
I70
sS'making'
p1549
I30
sS'specifies'
p1550
I10
sS'learning'
p1551
I20
sS'West'
p1552
I10
sS'Since'
p1553
I20
sS'moving'
p1554
I10
sS'competition'
p1555
I10
sS'table'
p1556
I30
sS'images'
p1557
I70
sS'International'
p1558
I60
sS'thinks'
p1559
I40
sS'Diagrams'
p1560
I10
sS'provided'
p1561
I40
sS'slice'
p1562
I20
sS'self-configuration'
p1563
I10
sS'memories'
p1564
I10
sS'stops'
p1565
I10
sS'moon'
p1566
I10
sS'flow'
p1567
I30
sS'provides'
p1568
I50
sS'understandings'
p1569
I20
sS'Intrinsic'
p1570
I10
sS'refer'
p1571
I10
sS'Interaction'
p1572
I30
sS'scientific'
p1573
I100
sS'equivalent'
p1574
I40
sS'Nostrand'
p1575
I10
sS'meets'
p1576
I10
sS'elaborates'
p1577
I10
sS'1939'
p1578
I20
sS'refers'
p1579
I10
sS'Mathematical'
p1580
I10
sS'on'
p1581
I960
sS'stone'
p1582
I20
sS'Revolution'
p1583
I10
sS'central'
p1584
I10
sS'of'
p1585
I10450
sS'industry'
p1586
I50
sS'develops'
p1587
I10
sS'practical'
p1588
I20
sS'mutually'
p1589
I10
sS'Analyzing'
p1590
I20
sS'stand'
p1591
I20
sS'act'
p1592
I60
sS'Images'
p1593
I10
sS'processor'
p1594
I30
sS'metaphors'
p1595
I10
sS'fallacy'
p1596
I20
sS'burning'
p1597
I10
sS'No'
p1598
I120
sS'communication'
p1599
I100
sS'image'
p1600
I100
sS'determine'
p1601
I20
sS'neuroscience'
p1602
I20
sS'elementary'
p1603
I60
sS'nowadays'
p1604
I10
sS'your'
p1605
I30
sS'theoretically'
p1606
I10
sS'Fabric'
p1607
I10
sS'argumentation'
p1608
I10
sS'in-formed'
p1609
I10
sS'legacy'
p1610
I10
sS'her'
p1611
I60
sS'Though'
p1612
I10
sS'assumed'
p1613
I40
sS'Wheeler'
p1614
I30
sS'literal'
p1615
I10
sS'strict'
p1616
I80
sS'lions'
p1617
I10
sS'Microelectronic'
p1618
I10
sS'lot'
p1619
I50
sS'cultures'
p1620
I10
sS'Dodig-Crnkovic'
p1621
I60
sS'assumes'
p1622
I10
sS'media'
p1623
I20
sS'complete'
p1624
I20
sS'N.'
p1625
I70
sS'consideres'
p1626
I10
sS'J'
p1627
I110
sS'she/he'
p1628
I10
sS'philosophers'
p1629
I30
sS'affordances'
p1630
I20
sS'multitasking'
p1631
I10
sS'with'
p1632
I930
sS'75.'
p1633
I10
sS'faster'
p1634
I10
sS'shortterm'
p1635
I10
sS"'giving"
p1636
I10
sS'arranged'
p1637
I10
sS'Century'
p1638
I10
sS'Society'
p1639
I30
sS'computationalism'
p1640
I30
sS'Informationsbegriff'
p1641
I10
sS'organize'
p1642
I10
sS'2003a'
p1643
I10
sS'beliefs'
p1644
I70
sS'Special'
p1645
I10
sS'expect'
p1646
I10
sS'strongly'
p1647
I20
sS'interval'
p1648
I10
sS'certain'
p1649
I80
sS'describe'
p1650
I20
sS'am'
p1651
I10
sS'al'
p1652
I20
sS'general'
p1653
I560
sS'How'
p1654
I20
sS'as'
p1655
I2390
sS'senses'
p1656
I10
sS'asynchronous'
p1657
I10
sS'at'
p1658
I280
sS'file'
p1659
I60
sS'Mathematics'
p1660
I50
sS'Ferdinand'
p1661
I10
sS'Essays'
p1662
I10
sS'film'
p1663
I60
sS'Real'
p1664
I10
sS'formant'
p1665
I10
sS'beyond'
p1666
I20
sS'completeness'
p1667
I10
sS'Algebra'
p1668
I10
sS'storage'
p1669
I100
sS'As'
p1670
I240
sS'Parameters'
p1671
I10
sS'field'
p1672
I120
sS'that'
p1673
I2670
sS'5'
p1674
I140
sS'Amadeus'
p1675
I10
sS'spatial'
p1676
I20
sS'microscopes'
p1677
I10
sS'mathematics'
p1678
I170
sS'you'
p1679
I130
sS'Law'
p1680
I10
sS'At'
p1681
I220
sS'deviation'
p1682
I10
sS'Randomness'
p1683
I10
sS'games'
p1684
I30
sS'separate'
p1685
I70
sS'students'
p1686
I130
sS'translated'
p1687
I10
sS'symbol'
p1688
I310
sS'includes'
p1689
I90
sS'attentional'
p1690
I10
sS'important'
p1691
I210
sS'suited'
p1692
I10
sS'tendencies'
p1693
I10
sS'13'
p1694
I50
sS'building'
p1695
I20
sS'calls'
p1696
I10
sS'Modern'
p1697
I10
sS'262-266'
p1698
I10
sS'having'
p1699
I10
sS'Brain'
p1700
I20
sS'impossibility'
p1701
I20
sS'mass'
p1702
I30
sS'parallelism'
p1703
I10
sS'Short-'
p1704
I10
sS"'condensed"
p1705
I10
sS'original'
p1706
I10
sS'Paradoxes'
p1707
I10
sS'SIS'
p1708
I10
sS'represent'
p1709
I90
sS'all'
p1710
I440
sS'looped'
p1711
I10
sS'Van'
p1712
I20
sS'consider'
p1713
I270
sS'pointing'
p1714
I30
sS'lack'
p1715
I20
sS'splitting'
p1716
I10
sS'Hendrik'
p1717
I10
sS'c2'
p1718
I10
sS'expressions'
p1719
I50
sS'research'
p1720
I60
sS'religious'
p1721
I20
sS'reasoning'
p1722
I20
sS'causes'
p1723
I40
sS'particles'
p1724
I130
sS'infocomputational'
p1725
I20
sS'icons'
p1726
I40
sS'equivalence'
p1727
I20
sS'opportunities'
p1728
I10
sS'former'
p1729
I10
sS'to'
p1730
I3780
sS'program'
p1731
I40
sS'preserved'
p1732
I10
sS'instruct'
p1733
I20
sS'1-96'
p1734
I10
sS'sound'
p1735
I10
sS'Informatik'
p1736
I10
sS'worse'
p1737
I10
sS'Informatio'
p1738
I10
sS'very'
p1739
I140
sS'plural'
p1740
I10
sS'Report'
p1741
I10
sS'verb'
p1742
I10
sS'Sohn'
p1743
I10
sS'decide'
p1744
I10
sS'ln'
p1745
I20
sS'difference'
p1746
I210
sS'condition'
p1747
I20
sS'linguists'
p1748
I10
sS'Weizsacker'
p1749
I60
sS'issue'
p1750
I10
sS'arts'
p1751
I10
sS'Psyche'
p1752
I10
sS'biological'
p1753
I40
sS'Functioning'
p1754
I10
sS'20th'
p1755
I10
sS'abstracted'
p1756
I10
sS'Actually'
p1757
I40
sS'past'
p1758
I10
sS'Department'
p1759
I10
sS'Only'
p1760
I30
sS'perspective'
p1761
I10
sS'243-249'
p1762
I10
sS'Jumarie'
p1763
I20
sS'further'
p1764
I40
sS'functioning'
p1765
I20
sS'situated'
p1766
I10
sS"Turing's"
p1767
I20
sS'conscience'
p1768
I40
sS'what'
p1769
I430
sS'Latin'
p1770
I10
sS'consumers'
p1771
I10
sS'Natural/Unconventional'
p1772
I10
sS'sun'
p1773
I10
sS'sum'
p1774
I30
sS'emotions'
p1775
I20
sS'version'
p1776
I10
sS'attitudes'
p1777
I10
sS'intersect'
p1778
I10
sS'scientists'
p1779
I30
sS'public'
p1780
I20
sS'contrast'
p1781
I30
sS'revealing'
p1782
I20
sS'condensed'
p1783
I10
sS'K'
p1784
I70
sS'Finland'
p1785
I10
sS'component'
p1786
I260
sS'answers'
p1787
I10
sS'behaviour'
p1788
I50
sS'selective'
p1789
I10
sS'operating'
p1790
I20
sS'Laurel'
p1791
I10
sS'directions'
p1792
I10
sS'i.e'
p1793
I20
sS'observing'
p1794
I10
sS'transformation'
p1795
I90
sS'fantasies'
p1796
I10
sS'Concept'
p1797
I30
sS'sender'
p1798
I20
sS'ahead'
p1799
I10
sS'Communication'
p1800
I20
sS'inspired'
p1801
I10
sS'allows'
p1802
I90
sS"peuvent'elles"
p1803
I10
sS'experience'
p1804
I50
sS'interconnected'
p1805
I10
sS'prior'
p1806
I10
sS'amount'
p1807
I30
sS'advertising'
p1808
I10
sS'social'
p1809
I100
sS'action'
p1810
I20
sS'concerned'
p1811
I10
sS'deterministic'
p1812
I10
sS'family'
p1813
I10
sS'mediator'
p1814
I10
sS'Mechanisms'
p1815
I10
sS'Morphogenesis'
p1816
I20
sS'texts'
p1817
I40
sS'follower'
p1818
I10
sS'S.'
p1819
I80
sS'Animal'
p1820
I10
sS'Ontological'
p1821
I450
sS'Evaluation'
p1822
I10
sS'detecting'
p1823
I10
sS'read-only'
p1824
I10
sS'conventional'
p1825
I50
sS'Elements'
p1826
I10
sS'v.342'
p1827
I10
sS'takes'
p1828
I50
sS'distinct'
p1829
I20
sS'reproach'
p1830
I10
sS'contains'
p1831
I280
sS'two'
p1832
I220
sS'chaotic'
p1833
I10
sS'automata'
p1834
I70
sS'subsumed'
p1835
I10
sS'Suppes'
p1836
I20
sS'6'
p1837
I140
sS'Russian'
p1838
I70
sS'Dretske'
p1839
I70
sS'Meaningful'
p1840
I20
sS'90095'
p1841
I10
sS'more'
p1842
I510
sS'knows'
p1843
I30
sS'initiated'
p1844
I10
sS'substances'
p1845
I10
sS'constructs'
p1846
I20
sS'Feasible'
p1847
I10
sS'American'
p1848
I30
sS'So'
p1849
I30
sS'particular'
p1850
I100
sS'known'
p1851
I70
sS'foundations'
p1852
I50
sS'Harcourt'
p1853
I10
sS'producing'
p1854
I10
sS'LTM'
p1855
I10
sS'evolves'
p1856
I10
sS'include'
p1857
I10
sS'Afterwards'
p1858
I10
sS'Belkin'
p1859
I40
sS'Int'
p1860
I10
sS'science'
p1861
I220
sS'der'
p1862
I20
sS'des'
p1863
I30
sS'den'
p1864
I10
sS'learn'
p1865
I40
sS'strategies'
p1866
I10
sS'Minsky'
p1867
I50
sS'history'
p1868
I30
sS'Conference'
p1869
I40
sS'triads'
p1870
I50
sS'Preprint'
p1871
I20
sS'cosmological'
p1872
I10
sS'stated'
p1873
I20
sS'longterm'
p1874
I10
sS'neglected'
p1875
I10
sS'accept'
p1876
I60
sS'states'
p1877
I120
sS'eidos'
p1878
I10
sS'numbers'
p1879
I50
sS'$'
p1880
I10
sS'sense'
p1881
I270
sS'74.'
p1882
I10
sS'!'
p1883
I20
sS'information'
p1884
I4990
sS'needs'
p1885
I20
sS'recursive'
p1886
I10
sS'rather'
p1887
I50
sS'IEEE'
p1888
I10
sS'acts'
p1889
I10
sS'Fleissner'
p1890
I60
sS'Meaning'
p1891
I40
sS'influences'
p1892
I40
sS'reject'
p1893
I10
sS'A.A.'
p1894
I10
sS'bit'
p1895
I20
sS'explains'
p1896
I40
sS'Structural'
p1897
I70
sS'Human'
p1898
I10
sS'algebra'
p1899
I10
sS'Multiplicity'
p1900
I10
sS'Scale-free'
p1901
I10
sS'derived'
p1902
I60
sS'long'
p1903
I40
sS'reflect'
p1904
I40
sS'Matter'
p1905
I10
sS'tries'
p1906
I10
sS'plane'
p1907
I10
sS'solipsism'
p1908
I10
sS'SIME'
p1909
I20
sS'waves'
p1910
I10
sS'response'
p1911
I10
sS'a'
p1912
I5430
sS'Aristotelian'
p1913
I10
sS'register'
p1914
I10
sS"'what"
p1915
I10
sS'generic'
p1916
I10
sS'promotes'
p1917
I10
sS'responsibility'
p1918
I10
sS'fundamental'
p1919
I200
sS'Signs'
p1920
I10
sS'Existence'
p1921
I30
sS'years'
p1922
I10
sS'began'
p1923
I10
sS'Film'
p1924
I10
sS'What'
p1925
I110
sS'materialistic'
p1926
I10
sS'help'
p1927
I40
sS'scale-relative'
p1928
I10
sS'185-223'
p1929
I10
sS'hierarchy'
p1930
I10
sS'developed'
p1931
I100
sS'held'
p1932
I10
sS'thermal'
p1933
I20
sS'paper'
p1934
I190
sS'through'
p1935
I120
sS'signs'
p1936
I130
sS'existence'
p1937
I140
sS'self-structuring'
p1938
I10
sS'MIT'
p1939
I30
sS'roots'
p1940
I10
sS'24'
p1941
I50
sS'25'
p1942
I50
sS'26'
p1943
I40
sS'27'
p1944
I50
sS'20'
p1945
I40
sS'21'
p1946
I50
sS'22'
p1947
I40
sS'23'
p1948
I40
sS'3,4'
p1949
I10
sS'Where'
p1950
I10
sS'Philosophy'
p1951
I90
sS'28'
p1952
I40
sS'29'
p1953
I40
sS'actually'
p1954
I20
sS'absence'
p1955
I20
sS'Quest'
p1956
I20
sS'systems'
p1957
I430
sS'followers'
p1958
I10
sS'might'
p1959
I50
sS'good'
p1960
I40
sS'somebody'
p1961
I30
sS'evaluate'
p1962
I10
sS'entire'
p1963
I10
sS'Dertouzos'
p1964
I10
sS'universality'
p1965
I10
sS'transaction/transition/transmission'
p1966
I20
sS'reflected'
p1967
I10
sS'framework'
p1968
I60
sS'219-253'
p1969
I10
sS'instructions'
p1970
I20
sS'Cell'
p1971
I10
sS'likeness'
p1972
I20
sS'mathematician'
p1973
I30
sS'always'
p1974
I100
sS'Newton'
p1975
I10
sS'synthesize'
p1976
I10
sS'broad'
p1977
I70
sS'capability'
p1978
I10
sS'token'
p1979
I10
sS'stopped'
p1980
I10
sS'genom'
p1981
I10
sS'inherent'
p1982
I20
sS'Abel'
p1983
I10
sS'difficult'
p1984
I10
sS'-repair'
p1985
I10
sS'characterized'
p1986
I20
sS'referred'
p1987
I30
sS'subsystem'
p1988
I10
sS'reactions'
p1989
I10
sS'mental'
p1990
I160
sS'weight'
p1991
I20
sS'generation'
p1992
I40
sS'thermodynamics'
p1993
I10
sS'energy'
p1994
I290
sS'hard'
p1995
I30
sS'idea'
p1996
I130
sS'p389'
p1997
I10
sS'connect'
p1998
I10
sS'measurement'
p1999
I20
sS'quantum'
p2000
I110
sS'practitioner'
p2001
I20
sS'operation'
p2002
I40
sS'Reading'
p2003
I20
sS'event'
p2004
I30
sS'really'
p2005
I20
sS'deals'
p2006
I10
sS'E/'
p2007
I10
sS'E.'
p2008
I40
sS'psychology'
p2009
I20
sS'Adriaans'
p2010
I10
sS'since'
p2011
I20
sS'induces'
p2012
I20
sS'projected'
p2013
I10
sS'publish'
p2014
I10
sS'denotes'
p2015
I30
sS'participants'
p2016
I10
sS'meaning'
p2017
I210
sS'Totalogy'
p2018
I10
sS'7'
p2019
I130
sS'Nexus'
p2020
I10
sS'denoted'
p2021
I50
sS'Exloring'
p2022
I10
sS'processes/agents'
p2023
I10
sS'Einheit'
p2024
I10
sS'belief'
p2025
I30
sS'semiotic'
p2026
I20
sS'anthropomorphism'
p2027
I10
sS'According'
p2028
I80
sS'reason'
p2029
I20
sS'base'
p2030
I20
sS'Actuality'
p2031
I10
sS'Principle'
p2032
I570
sS'members'
p2033
I10
sS'imagine'
p2034
I10
sS'put'
p2035
I10
sS'teach'
p2036
I30
sS'beginning'
p2037
I20
sS'generate'
p2038
I10
sS'definition'
p2039
I340
sS'retained'
p2040
I10
sS'People'
p2041
I20
sS'Ed'
p2042
I40
sS'computers'
p2043
I110
sS'Years'
p2044
I10
sS'Semiotic'
p2045
I10
sS'Pythagorean'
p2046
I10
sS'enough'
p2047
I20
sS'consequence'
p2048
I10
sS'existential'
p2049
I40
sS'Linguistics'
p2050
I20
sS'ability'
p2051
I10
sS'utilizes'
p2052
I10
sS'probability'
p2053
I10
sS'relate'
p2054
I10
sS'number'
p2055
I40
sS'well-known'
p2056
I10
sS'utilized'
p2057
I50
sS'done'
p2058
I40
sS'least'
p2059
I10
sS'says'
p2060
I10
sS'equating'
p2061
I10
sS'passes'
p2062
I10
sS'story'
p2063
I10
sS'Dictionary'
p2064
I40
sS'utilization'
p2065
I10
sS'introduction'
p2066
I10
sS'leading'
p2067
I20
sS'interact'
p2068
I20
sS'construct'
p2069
I10
sS'Changing'
p2070
I10
sS'transcendent'
p2071
I10
sS'quotes'
p2072
I10
sS'passed'
p2073
I10
sS'Raum'
p2074
I20
sS'macro-scale'
p2075
I10
sS'151-178'
p2076
I10
sS'store'
p2077
I30
sS'too'
p2078
I30
sS'elaboration'
p2079
I10
sS'Ackoff'
p2080
I20
sS'statement'
p2081
I30
sS'Language'
p2082
I20
sS'behind'
p2083
I20
sS'mentality'
p2084
I60
sS'60'
p2085
I10
sS'Flukiger'
p2086
I30
sS'information-based'
p2087
I10
sS'assumption'
p2088
I10
sS'part'
p2089
I90
sS'differentiate'
p2090
I20
sS'McGraw'
p2091
I10
sS'off'
p2092
I10
sS'Problem'
p2093
I10
sS'believe'
p2094
I60
sS'aluminum'
p2095
I10
sS'1916'
p2096
I20
sS'king'
p2097
I10
sS'kind'
p2098
I170
sS'determines'
p2099
I30
sS'instruction'
p2100
I20
sS'determined'
p2101
I20
sS'supposed'
p2102
I10
sS'treated'
p2103
I40
sS'remembers'
p2104
I10
sS'Info-computational'
p2105
I30
sS'Affairs'
p2106
I10
sS'Doctoral'
p2107
I10
sS'Traditionally'
p2108
I10
sS'outstanding'
p2109
I40
sS'electrodynamics'
p2110
I10
sS'197-204'
p2111
I10
sS'pedestrian'
p2112
I10
sS'substantial'
p2113
I10
sS'dynamics'
p2114
I60
sS'option'
p2115
I20
sS'relationship'
p2116
I60
sS'zero'
p2117
I10
sS'Ukrainian'
p2118
I10
sS'Philosophical'
p2119
I10
sS'majority'
p2120
I40
sS'empirically'
p2121
I30
sS'Germany'
p2122
I30
sS'build'
p2123
I60
sS'analogy'
p2124
I20
sS'Galileo'
p2125
I30
sS'on-going'
p2126
I10
sS'infocomputationalism'
p2127
I30
sS'simultaneity'
p2128
I10
sS'transparent'
p2129
I10
sS'2001a'
p2130
I20
sS'play'
p2131
I10
sS'towards'
p2132
I10
sS'bottle'
p2133
I10
sS'Dordrecht'
p2134
I10
sS'measures'
p2135
I40
sS'M'
p2136
I60
sS'Equal'
p2137
I10
sS'77'
p2138
I10
sS'76'
p2139
I10
sS'Shreider'
p2140
I20
sS'Informationsbegriffs'
p2141
I10
sS'significant'
p2142
I20
sS'Concepts'
p2143
I30
sS'nothing'
p2144
I40
sS'The'
p2145
I1410
sS'measured'
p2146
I20
sS'achievement'
p2147
I20
sS'Taking'
p2148
I20
sS'Euclidean'
p2149
I10
sS'Structuralists'
p2150
I10
sS'clear'
p2151
I20
sS'sometimes'
p2152
I10
sS'coincides'
p2153
I40
sS'traditional'
p2154
I20
sS'Like'
p2155
I10
sS'optical'
p2156
I10
sS'electrons'
p2157
I10
sS'bodies'
p2158
I40
sS'velocity'
p2159
I20
sS'Physical'
p2160
I80
sS'physics'
p2161
I210
sS'Vieweg'
p2162
I10
sS'stones'
p2163
I10
sS'Sechehaye'
p2164
I10
sS'somewhat'
p2165
I10
sS'Han'
p2166
I20
sS'authors'
p2167
I10
sS'defended'
p2168
I10
sS'Synthese'
p2169
I20
sS'large'
p2170
I10
sS'registers'
p2171
I20
sS'relation'
p2172
I120
sS'Hill'
p2173
I10
sS'Abramsky'
p2174
I30
sS'Utilizing'
p2175
I10
sS'fine'
p2176
I10
sS'translation'
p2177
I10
sS'impact'
p2178
I10
sS'computability'
p2179
I20
sS'parameters'
p2180
I20
sS'Bourbaki'
p2181
I20
sS'nervous'
p2182
I10
sS'writes'
p2183
I60
sS'hope'
p2184
I10
sS'assertion'
p2185
I10
sS'French'
p2186
I30
sS'log-term'
p2187
I10
sS'Nature'
p2188
I100
sS'Lopes'
p2189
I10
sS'discuss'
p2190
I40
sS'his'
p2191
I190
sS'Ballantine'
p2192
I10
sS'connections'
p2193
I60
sS'trees'
p2194
I10
sS'1318'
p2195
I10
sS'famous'
p2196
I10
sS'non-Diophantine'
p2197
I10
sS'valuable'
p2198
I10
sS'closely'
p2199
I30
sS'relational'
p2200
I20
sS'during'
p2201
I10
sS'cognizing'
p2202
I10
sS'resolve'
p2203
I10
sS'adapts'
p2204
I10
sS'Symbolic'
p2205
I10
sS'investigate'
p2206
I20
sS'common'
p2207
I100
sS'activity'
p2208
I20
sS'x'
p2209
I40
sS'wrote'
p2210
I30
sS'Routledge'
p2211
I10
sS'body'
p2212
I50
sS'set'
p2213
I160
sS'art'
p2214
I20
sS'For'
p2215
I510
sS'achieved'
p2216
I10
sS'intelligence'
p2217
I120
sS'see'
p2218
I210
sS'individual'
p2219
I290
sS'are'
p2220
I1500
sS'close'
p2221
I10
sS'forthcoming'
p2222
I10
sS'analog'
p2223
I60
sS'-assembly'
p2224
I10
sS'gravitation'
p2225
I10
sS'movie'
p2226
I30
sS'currently'
p2227
I20
sS'various'
p2228
I20
sS'Concerning'
p2229
I10
sS'experiences'
p2230
I20
sS'numerous'
p2231
I10
sS'knowing'
p2232
I10
sS'Kind'
p2233
I10
sS'information-as-thing'
p2234
I10
sS'unconscious'
p2235
I20
sS'complementary'
p2236
I10
sS'attention'
p2237
I20
sS'Florida'
p2238
I10
sS'Against'
p2239
I10
sS'distinguish'
p2240
I10
sS'preprint'
p2241
I10
sS'357-372'
p2242
I10
sS'Touchstone'
p2243
I10
sS'both'
p2244
I140
sS'c'
p2245
I10
sS'paradigms'
p2246
I30
sS'tangible'
p2247
I30
sS'orients'
p2248
I10
sS'Consciousness'
p2249
I10
sS'memorized'
p2250
I10
sS'Nowadays'
p2251
I10
sS'informatic'
p2252
I10
sS'quantization'
p2253
I10
sS'Symbols'
p2254
I30
sS'show/explicate'
p2255
I10
sS'connection'
p2256
I50
sS'became'
p2257
I30
sS'context'
p2258
I10
sS'axiological'
p2259
I20
sS'long-term'
p2260
I10
sS'poverty'
p2261
I10
sS'geniuses'
p2262
I10
sS'whole'
p2263
I50
sS'finds'
p2264
I40
sS'experimental'
p2265
I40
sS'NewYork/Toronto/London'
p2266
I10
sS'J.'
p2267
I80
sS'point'
p2268
I20
sS'simple'
p2269
I30
sS'corresponds'
p2270
I60
sS'community'
p2271
I60
sS'Sayre'
p2272
I10
sS'simply'
p2273
I20
sS'York/London'
p2274
I10
sS'pp'
p2275
I360
sS'invented'
p2276
I10
sS'described'
p2277
I20
sS'transformations'
p2278
I60
sS'instrument'
p2279
I10
sS'create'
p2280
I40
sS'Chicago'
p2281
I20
sS'creativity'
p2282
I10
sS'due'
p2283
I20
sS'appears'
p2284
I30
sS'whom'
p2285
I10
sS'describes'
p2286
I10
sS'California'
p2287
I20
sS'Carl'
p2288
I10
sS'time-evolution'
p2289
I10
sS'Theorie'
p2290
I10
sS'Relativity'
p2291
I30
sS'Princeton'
p2292
I20
sS'fire'
p2293
I30
sS'Bally'
p2294
I10
sS'Eglish'
p2295
I10
sS'Newcastle'
p2296
I10
sS'39'
p2297
I20
sS'modelling'
p2298
I20
sS'N'
p2299
I90
sS'understand'
p2300
I170
sS'representative'
p2301
I30
sS'systematic'
p2302
I10
sS'presented'
p2303
I30
sS'handling'
p2304
I20
sS'conception'
p2305
I20
sS'nonmaterial'
p2306
I20
sS'p5'
p2307
I10
sS'Natur'
p2308
I10
sS'empirical'
p2309
I30
sS'unprecedented'
p2310
I10
sS'33'
p2311
I20
sS'while'
p2312
I240
sS'replaced'
p2313
I20
sS'behavior'
p2314
I50
sS'formats'
p2315
I10
sS'Barwise'
p2316
I20
sS'p.'
p2317
I10
sS'Energy'
p2318
I10
sS'loop'
p2319
I20
sS'concurrently'
p2320
I10
sS'elucidation'
p2321
I10
sS'century'
p2322
I40
sS'overlooked'
p2323
I10
sS'origin'
p2324
I10
sS'reads'
p2325
I20
sS'itself'
p2326
I120
sS'2.1.4'
p2327
I10
sS'Co.'
p2328
I10
sS'Dialogue'
p2329
I10
sS'interactive'
p2330
I20
sS'belong'
p2331
I20
sS'fallacies'
p2332
I10
sS'Understanding'
p2333
I10
sS'read'
p2334
I10
sS'discourse'
p2335
I20
sS'widely'
p2336
I10
sS'grand'
p2337
I10
sS'9'
p2338
I50
sS'composition'
p2339
I10
sS'higher'
p2340
I10
sS'development'
p2341
I110
sS'calculation'
p2342
I10
sS'used'
p2343
I230
sS'temporary'
p2344
I10
sS'616-618'
p2345
I10
sS'Transmission'
p2346
I10
sS'comprehensive'
p2347
I20
sS'flows'
p2348
I10
sS'essences'
p2349
I10
sS'moment'
p2350
I10
sS'levels'
p2351
I80
sS'impede'
p2352
I10
sS'receiver/recipient'
p2353
I10
sS'necessity'
p2354
I10
sS'Activity'
p2355
I10
sS'Algorithmic'
p2356
I10
sS'recent'
p2357
I10
sS'metron-content'
p2358
I10
sS'Soc'
p2359
I10
sS'Figure'
p2360
I60
sS'database'
p2361
I10
sS'Technology'
p2362
I20
sS'underlies'
p2363
I10
sS'depending'
p2364
I20
sS'analysis'
p2365
I70
sS'person'
p2366
I210
sS'Examples'
p2367
I30
sS'organization'
p2368
I50
sS'Kari'
p2369
I20
sS'parametric'
p2370
I60
sS'Karl'
p2371
I10
sS'T'
p2372
I20
sS'Considering'
p2373
I10
sS'things'
p2374
I160
sS'emerge'
p2375
I20
sS'approaches'
p2376
I60
sS'-'
p2377
I280
sS'Interdisciplinary'
p2378
I10
sS'1961'
p2379
I30
sS'shape'
p2380
I10
sS'questions'
p2381
I70
sS'Papers'
p2382
I10
sS'O7'
p2383
I10
sS'useful'
p2384
I20
sS'O5'
p2385
I30
sS'indexes'
p2386
I10
sS'O3'
p2387
I30
sS'O2'
p2388
I160
sS'O1'
p2389
I110
sS'discipline'
p2390
I20
sS'tables'
p2391
I50
sS'echoic'
p2392
I10
sS'Theory'
p2393
I160
sS'tablet'
p2394
I10
sS'also'
p2395
I330
sS'informal'
p2396
I10
sS'information-caused'
p2397
I10
sS'entirety'
p2398
I10
sS'exclusively'
p2399
I10
sS'signals'
p2400
I10
sS'source'
p2401
I70
sS'theorem'
p2402
I10
sS'input'
p2403
I70
sS'Ein'
p2404
I10
sS'remaining'
p2405
I10
sS'generalized'
p2406
I30
sS'...'
p2407
I30
sS'Belknap'
p2408
I10
sS'Dirac'
p2409
I20
sS'demands'
p2410
I20
sS'Die'
p2411
I10
sS'sociologists'
p2412
I10
sS'deepening'
p2413
I10
sS'67.'
p2414
I10
sS'Behavioral'
p2415
I10
sS'emergence'
p2416
I10
sS'formal'
p2417
I60
sS'imposed'
p2418
I10
sS'cognitive'
p2419
I200
sS'Computing'
p2420
I100
sS'follows'
p2421
I30
sS'signal'
p2422
I50
sS'disks'
p2423
I30
sS'consensus'
p2424
I10
sS'communications'
p2425
I20
sS'Fink'
p2426
I20
sS'individuals'
p2427
I20
sS'popular'
p2428
I20
sS'Safety'
p2429
I10
sS'acceptation'
p2430
I10
sS'essential'
p2431
I60
sS'Multiconference'
p2432
I10
sS'Praeger'
p2433
I10
sS'mathematical'
p2434
I160
sS'Epistemology'
p2435
I10
sS'often'
p2436
I50
sS'Scholars'
p2437
I10
sS'1st'
p2438
I10
sS'some'
p2439
I610
sS'back'
p2440
I10
sS'2-17'
p2441
I10
sS'understood'
p2442
I60
sS'alias/shortcut'
p2443
I10
sS'analogues'
p2444
I10
sS'examples'
p2445
I70
sS'sight'
p2446
I10
sS'Algebras'
p2447
I10
sS'Bar-Hillel'
p2448
I20
sS'ourselves'
p2449
I20
sS'Hilgard'
p2450
I10
sS'Economy'
p2451
I20
sS'and/or'
p2452
I30
sS'describing'
p2453
I20
sS'Moscow'
p2454
I20
sS'Wiley'
p2455
I10
sS'subjectivism'
p2456
I10
sS'per'
p2457
I20
sS'Sensory'
p2458
I10
sS'behave'
p2459
I10
sS'connecting'
p2460
I20
sS'Massachusetts'
p2461
I10
sS'forgets'
p2462
I20
sS'either'
p2463
I50
sS'be'
p2464
I650
sS'informationhandling'
p2465
I10
sS'processing'
p2466
I110
sS'step'
p2467
I20
sS'Neils'
p2468
I10
sS'output'
p2469
I50
sS'metaphor'
p2470
I10
sS'2/3'
p2471
I10
sS'dictated'
p2472
I10
sS'by'
p2473
I940
sS'von'
p2474
I90
sS'Landauer'
p2475
I40
sS'faith'
p2476
I10
sS'Square'
p2477
I20
sS'anything'
p2478
I30
sS'Communications'
p2479
I10
sS'firing'
p2480
I50
sS'Halting'
p2481
I10
sS'relativizing'
p2482
I10
sS'Yu.A'
p2483
I10
sS'Psychoanalysis'
p2484
I10
sS'block'
p2485
I10
sS'72'
p2486
I10
sS'accessible'
p2487
I10
sS'Simon'
p2488
I10
sS'71'
p2489
I10
sS'context-free'
p2490
I10
sS'into'
p2491
I200
sS'70'
p2492
I10
sS'integral'
p2493
I10
sS'isomorphic'
p2494
I10
sS'ACM'
p2495
I20
sS'Their'
p2496
I20
sS'Evariste'
p2497
I10
sS'computational'
p2498
I190
sS'adequacy'
p2499
I10
sS'//arXiv.org'
p2500
I20
sS'47-57'
p2501
I10
sS'155-166'
p2502
I10
sS'retrieving'
p2503
I10
sS'extremely'
p2504
I10
sS'question'
p2505
I70
sS'signifies'
p2506
I60
sS'signifier'
p2507
I10
sS'Info-Computationalism'
p2508
I10
sS'Comm'
p2509
I10
sS'suit'
p2510
I10
sS'signified'
p2511
I80
sS'bored'
p2512
I10
sS'Ross'
p2513
I10
sS'opens'
p2514
I10
sS'mountains'
p2515
I10
sS'mots'
p2516
I10
sS'himself'
p2517
I20
sS'Arithmetics'
p2518
I10
sS'elsewhere'
p2519
I20
sS'1-320'
p2520
I10
sS'link'
p2521
I10
sS'repeatedly'
p2522
I10
sS'Logic'
p2523
I10
sS'Vdm'
p2524
I10
sS'positivist'
p2525
I10
sS'Menant'
p2526
I20
sS'consist'
p2527
I20
sS'Bell'
p2528
I20
sS'characteristic'
p2529
I40
sS'transmits'
p2530
I20
sS'linguistique'
p2531
I10
sS'up'
p2532
I10
sS'us'
p2533
I180
sS'planet'
p2534
I10
sS'Books'
p2535
I20
sS'those'
p2536
I70
sS'diagrams'
p2537
I10
sS'continuously'
p2538
I10
sS'autonomous'
p2539
I20
sS'positivism'
p2540
I10
sS'etc.'
p2541
I30
sS'called'
p2542
I320
sS'storing'
p2543
I10
sS'non-living'
p2544
I20
sS'associated'
p2545
I20
sS'Dodig'
p2546
I60
sS'm'
p2547
I20
sS'influence'
p2548
I20
sS'Processes'
p2549
I10
sS'To'
p2550
I210
sS'single'
p2551
I50
sS'diverse'
p2552
I20
sS'Th'
p2553
I20
sS'Memory'
p2554
I40
sS'psychoanalysis'
p2555
I10
sS'defines'
p2556
I20
sS'buffer'
p2557
I10
sS'TV'
p2558
I20
sS'A.'
p2559
I90
sS'priori'
p2560
I10
sS'actors'
p2561
I10
sS'Informally'
p2562
I10
sS'Representations'
p2563
I10
sS'157-180'
p2564
I10
sS'explaining'
p2565
I20
sS'elements'
p2566
I270
sS'spectators'
p2567
I20
sS'bioinformatics'
p2568
I20
sS'SAPERE.'
p2569
I10
sS'problems'
p2570
I110
sS'helping'
p2571
I10
sS'generated'
p2572
I20
sS'Carrier'
p2573
I20
sS'graphically'
p2574
I10
sS'absorbing'
p2575
I10
sS'structure'
p2576
I460
sS'O4'
p2577
I20
sS'implies'
p2578
I50
sS'Generality'
p2579
I10
sS'149184'
p2580
I10
sS'organism'
p2581
I30
sS'age'
p2582
I20
sS'required'
p2583
I10
sS'Am'
p2584
I10
sS'An'
p2585
I100
sS'2002'
p2586
I100
sS'2003'
p2587
I40
sS'2000'
p2588
I60
sS'2001'
p2589
I50
sS'correlates'
p2590
I90
sS'2007'
p2591
I40
sS'2004'
p2592
I90
sS'2005'
p2593
I10
sS'2008'
p2594
I60
sS'2009'
p2595
I30
sS'imprecise'
p2596
I10
sS'non-Euclidean'
p2597
I20
sS'once'
p2598
I10
sS'results'
p2599
I80
sS'existing'
p2600
I50
sS'psyche'
p2601
I20
sS'helped'
p2602
I10
sS'Answers'
p2603
I10
sS'broader'
p2604
I10
sS'go'
p2605
I20
sS'particularly'
p2606
I10
sS'naturalised'
p2607
I10
sS'misconception'
p2608
I20
sS'phenomenon'
p2609
I80
sS'similar'
p2610
I200
sS'O5a'
p2611
I10
sS'Object'
p2612
I10
sS'Diophantine'
p2613
I10
sS'young'
p2614
I10
sS'send'
p2615
I10
sS'suits'
p2616
I20
sS'languages'
p2617
I10
sS'institutions'
p2618
I10
sS'72-83'
p2619
I10
sS'Not'
p2620
I20
sS'Berlin/Heidelberg/New'
p2621
I10
sS'Now'
p2622
I20
sS'NY'
p2623
I10
sS'Brooks/Cole'
p2624
I10
sS'stocked'
p2625
I10
sS'Holland'
p2626
I20
sS'Penrose'
p2627
I10
sS'Cognition'
p2628
I10
sS'Systemics'
p2629
I10
sS'ed.'
p2630
I10
sS'conditions'
p2631
I20
sS'engineered'
p2632
I10
sS'P'
p2633
I10
sS'electron'
p2634
I60
sS'distribution'
p2635
I10
sS'cellular'
p2636
I70
sS'severely'
p2637
I10
sS'transmission'
p2638
I70
sS'Platonist'
p2639
I10
sS'integrating'
p2640
I10
sS'try'
p2641
I10
sS'?'
p2642
I180
sS'76-92'
p2643
I10
sS'gauge'
p2644
I10
sS'convention-based'
p2645
I10
sS'Daedalus'
p2646
I10
sS'Securing'
p2647
I10
sS'R.C.'
p2648
I10
sS'-replication'
p2649
I10
sS'imply'
p2650
I40
sS'dualistic'
p2651
I20
sS'video'
p2652
I10
sS'Loewenstein'
p2653
I20
sS'Brace'
p2654
I10
sS'Transformation'
p2655
I40
sS'index'
p2656
I40
sS'turn'
p2657
I30
sS'plays'
p2658
I70
sS'rate'
p2659
I10
sS'giving'
p2660
I10
sS'Include'
p2661
I10
sS'expressed'
p2662
I10
sS'networks'
p2663
I50
sS'cell'
p2664
I30
sS'19th'
p2665
I10
sS'experiment'
p2666
I10
sS'Necessity'
p2667
I10
sS';'
p2668
I330
sS'Alan'
p2669
I30
sS'bird'
p2670
I10
sS'Numbers'
p2671
I10
sS'cf.'
p2672
I90
sS'energy/matter'
p2673
I10
sS'Milov'
p2674
I20
sS'chose'
p2675
I10
sS'degree'
p2676
I10
sS'exchange'
p2677
I10
sS'iconic'
p2678
I10
sS'elimination'
p2679
I10
sS'desired'
p2680
I10
sS'explore'
p2681
I10
sS'objects'
p2682
I160
sS'let'
p2683
I100
sS'others'
p2684
I50
sS'sine'
p2685
I10
sS'implicit'
p2686
I10
sS'equivocity'
p2687
I30
sS'great'
p2688
I100
sS'38'
p2689
I20
sS'Chinese'
p2690
I20
sS'receive'
p2691
I40
sS'32'
p2692
I30
sS'31'
p2693
I40
sS'30'
p2694
I50
sS'37'
p2695
I30
sS'36'
p2696
I20
sS'35'
p2697
I30
sS'34'
p2698
I30
sS'641'
p2699
I10
sS'suggests'
p2700
I40
sS'products'
p2701
I20
sS'opinion'
p2702
I60
sS'implement'
p2703
I10
sS'makes'
p2704
I210
sS'involves'
p2705
I10
sS'Seligman'
p2706
I20
sS'named'
p2707
I80
sS'Besides'
p2708
I50
sS'danger'
p2709
I20
sS'Distributed'
p2710
I10
sS'wave-particle'
p2711
I10
sS'addressed'
p2712
I10
sS'J.G'
p2713
I10
sS'names'
p2714
I30
sS'composer'
p2715
I10
sS'Notices'
p2716
I10
sS'tools'
p2717
I30
sS'causal'
p2718
I20
sS'cloud'
p2719
I30
sS'J.L'
p2720
I10
sS'use'
p2721
I170
sS'1938'
p2722
I20
sS'from'
p2723
I770
sS'form-changing/form-generating'
p2724
I10
sS'consumption'
p2725
I10
sS'&'
p2726
I170
sS'remains'
p2727
I10
sS'morphogenesis'
p2728
I60
sS'normal'
p2729
I10
sS'next'
p2730
I40
sS'predict'
p2731
I10
sS'Representation'
p2732
I10
sS'Media'
p2733
I10
sS'themselves'
p2734
I50
sS'start'
p2735
I10
sS'reflects'
p2736
I10
sS'persuasive'
p2737
I10
sS'possession'
p2738
I10
sS'ftp'
p2739
I10
sS'becomes'
p2740
I60
sS'digits'
p2741
I10
sS'extracts'
p2742
I20
sS'microscope/telescope'
p2743
I10
sS'8'
p2744
I70
sS'discreteness'
p2745
I10
sS'detects'
p2746
I10
sS'account'
p2747
I40
sS'excellent'
p2748
I10
sS'f'
p2749
I80
sS'this'
p2750
I1430
sS'ride'
p2751
I10
sS'insists'
p2752
I10
sS'Library'
p2753
I20
sS'Wiener'
p2754
I20
sS'unreal'
p2755
I20
sS'obvious'
p2756
I10
sS'interpretant'
p2757
I20
sS'purports'
p2758
I20
sS'F.'
p2759
I60
sS'control'
p2760
I40
sS'Heidegger'
p2761
I30
sS'e.g.'
p2762
I110
sS'process'
p2763
I230
sS'introduces'
p2764
I20
sS'inaccessible'
p2765
I10
sS'purposes'
p2766
I10
sS'Artificial'
p2767
I10
sS'assumptions'
p2768
I10
sS'something'
p2769
I210
sS'sought'
p2770
I10
sS'Symbolical'
p2771
I10
sS'informing'
p2772
I20
sS'educational'
p2773
I10
sS'holds'
p2774
I10
sS'poetry'
p2775
I10
sS'Wave'
p2776
I10
sS'animal'
p2777
I30
sS'instead'
p2778
I10
sS'155'
p2779
I10
sS'subconsciously'
p2780
I10
sS'intelligent'
p2781
I60
sS'Solutions'
p2782
I10
sS'Denning'
p2783
I20
sS'buildings'
p2784
I20
sS'self-healing'
p2785
I10
sS'UK'
p2786
I10
sS'singular'
p2787
I10
sS'Technical'
p2788
I10
sS'philosophy'
p2789
I90
sS'collection'
p2790
I70
sS'Q'
p2791
I10
sS'ties'
p2792
I40
sS'Floridi'
p2793
I40
sS'engineering'
p2794
I20
sS'efficiently'
p2795
I30
sS'ambiguous'
p2796
I10
sS'realized'
p2797
I20
sS'Letters'
p2798
I10
sS'light'
p2799
I40
sS'feels'
p2800
I20
sS'element'
p2801
I60
sS'nonhuman'
p2802
I10
sS'advocates'
p2803
I10
sS'road'
p2804
I10
sS'allow'
p2805
I50
sS'Greece'
p2806
I20
sS'software'
p2807
I30
sS'divided'
p2808
I10
sS'furnish'
p2809
I20
sS'preparing'
p2810
I10
sS'Wilson'
p2811
I30
sS'evolutionary'
p2812
I50
sS'Lacan'
p2813
I30
sS'Words'
p2814
I20
sS'producer'
p2815
I10
sS'produces'
p2816
I60
sS'areas'
p2817
I20
sS'move'
p2818
I20
sS'Smith'
p2819
I10
sS'Buckland'
p2820
I30
sS'interpreted'
p2821
I10
sS'symbols'
p2822
I170
sS'mathematicians'
p2823
I10
sS'intermediates'
p2824
I10
sS'including'
p2825
I70
sS'looks'
p2826
I50
sS'Organization'
p2827
I10
sS'Hermann'
p2828
I10
sS'Rencotre'
p2829
I10
sS'Ensembles'
p2830
I10
sS'perfect'
p2831
I10
sS'chemical'
p2832
I50
sS'remark'
p2833
I30
sS'Scientific'
p2834
I50
sS'chosen'
p2835
I20
sS'relativity'
p2836
I40
sS'Roget'
p2837
I20
sS'him'
p2838
I20
sS'linguistica'
p2839
I10
sS'algorithmic'
p2840
I30
sS'choose'
p2841
I30
sS'instruments'
p2842
I10
sS'clusters'
p2843
I10
sS'defining'
p2844
I10
sS'2010'
p2845
I10
sS'etymological'
p2846
I10
sS'Sender'
p2847
I30
sS'Significant'
p2848
I10
sS'material'
p2849
I350
sS'Herbert'
p2850
I20
sS'Gordana'
p2851
I10
sS'Documentation'
p2852
I10
sS'Social'
p2853
I20
sS'critically'
p2854
I10
sS'documented'
p2855
I10
sS'genuine'
p2856
I10
sS'Informational'
p2857
I50
sS'day'
p2858
I20
sS'Symposium'
p2859
I10
sS'worlds'
p2860
I70
sS'Inc.'
p2861
I40
sS'San'
p2862
I10
sS'profound'
p2863
I10
sS'Roger'
p2864
I10
sS'Yu'
p2865
I10
sS'Scarrott'
p2866
I20
sS'identified'
p2867
I10
sS'Why'
p2868
I10
sS'unpredictable'
p2869
I10
sS'transmitted'
p2870
I10
sS'electrically'
p2871
I10
sS'crossing'
p2872
I10
sS'Melik-Gaikazyan'
p2873
I20
sS'identifies'
p2874
I30
sS'constraints'
p2875
I10
sS'few'
p2876
I30
sS'From'
p2877
I40
sS'devised'
p2878
I10
sS'doing'
p2879
I10
sS'Structured'
p2880
I10
sS'related'
p2881
I140
sS'inverted'
p2882
I10
sS'operator'
p2883
I20
sS'books'
p2884
I30
sS'Dans'
p2885
I10
sS'interplay'
p2886
I20
sS'IFC'
p2887
I10
sS'separating'
p2888
I10
sS'our'
p2889
I200
sS'Structures'
p2890
I90
sS'87'
p2891
I10
sS'special'
p2892
I30
sS'out'
p2893
I60
sS'category'
p2894
I20
sS'respects'
p2895
I10
sS'mediates'
p2896
I10
sS"'"
p2897
I140
sS'entertainment'
p2898
I110
sS'Material'
p2899
I20
sS'chaos'
p2900
I20
sS'wholly'
p2901
I10
sS'critics'
p2902
I10
sS'posteriori'
p2903
I10
sS'informativeness'
p2904
I20
sS'situational'
p2905
I10
sS'performs'
p2906
I20
sS'unprepared'
p2907
I20
sS'lecture'
p2908
I40
sS'adaptive'
p2909
I20
sS'cause'
p2910
I80
sS'architecture'
p2911
I10
sS'achievements'
p2912
I20
sS'Linguistique'
p2913
I10
sS'learns'
p2914
I10
sS'interactions'
p2915
I70
sS'This'
p2916
I600
sS'Knopf'
p2917
I10
sS'completely'
p2918
I40
sS'tied'
p2919
I10
sS'Fundamental'
p2920
I30
sS'95-108'
p2921
I10
sS'ask'
p2922
I50
sS'interaction'
p2923
I160
sS'organic'
p2924
I30
sS'prepare'
p2925
I20
sS'g'
p2926
I40
sS'geometry'
p2927
I20
sS'O4a'
p2928
I10
sS'Rozenberg'
p2929
I10
sS'bidirectional'
p2930
I10
sS"'s"
p2931
I310
sS'Heraklit'
p2932
I10
sS'length'
p2933
I10
sS'Computationalism'
p2934
I20
sS'distinctions'
p2935
I30
sS'hence'
p2936
I10
sS'there'
p2937
I330
sS'platonic'
p2938
I10
sS'Review'
p2939
I20
sS'confuse'
p2940
I10
sS'K.'
p2941
I70
sS'Multifaceted'
p2942
I10
sS'OM3'
p2943
I20
sS'Accordingly'
p2944
I10
sS'gratuitously'
p2945
I10
sS'representations'
p2946
I130
sS'quality'
p2947
I10
sS'Theoretical'
p2948
I50
sS'ancient'
p2949
I20
sS'North'
p2950
I20
sS'reference'
p2951
I40
sS'Newtonian'
p2952
I10
sS'Eastern'
p2953
I50
sS'revealed'
p2954
I10
sS'Liminal'
p2955
I10
sS'detailing'
p2956
I10
sS'system'
p2957
I1640
sS'relations'
p2958
I40
sS'Capurro'
p2959
I110
sS'their'
p2960
I280
sS'philosophical'
p2961
I10
sS'perfectly'
p2962
I10
sS'636-654'
p2963
I10
sS'circulate'
p2964
I10
sS'While'
p2965
I30
sS'stars'
p2966
I20
sS'big'
p2967
I20
sS'explanation'
p2968
I20
sS'exactly'
p2969
I50
sS'self-sustaining'
p2970
I10
sS'R'
p2971
I700
sS'simulate'
p2972
I10
sS'manipulation'
p2973
I10
sS'fuzzy'
p2974
I10
sS'Hjorland'
p2975
I20
sS'microphysics'
p2976
I10
sS'herself'
p2977
I10
sS'Important'
p2978
I10
sS'blind'
p2979
I10
sS'producers'
p2980
I10
sS'resist'
p2981
I10
sS'Classical'
p2982
I10
sS'Mass'
p2983
I10
sS'Portraits'
p2984
I10
sS'lion'
p2985
I30
sS'extraordinarily'
p2986
I10
sS'Macmillan'
p2987
I10
sS'founder'
p2988
I10
sS'Edition'
p2989
I20
sS'abstraction/resolution'
p2990
I10
sS'References'
p2991
I10
sS'reproduction'
p2992
I10
sS'lover'
p2993
I10
sS'providing'
p2994
I20
sS'distinguished'
p2995
I10
sS'descriptions'
p2996
I20
sS'behaviors'
p2997
I20
sS'Information'
p2998
I860
sS'half'
p2999
I20
sS'curves'
p3000
I10
sS'correspond'
p3001
I40
sS'Machine'
p3002
I20
sS'Other'
p3003
I30
sS'have'
p3004
I460
sS'need'
p3005
I120
sS'One'
p3006
I80
sS'demonstration'
p3007
I10
sS'linked'
p3008
I10
sS'documents'
p3009
I30
sS'More'
p3010
I30
sS'Zuse'
p3011
I40
sS'Goldman'
p3012
I20
sS'After'
p3013
I20
sS'able'
p3014
I50
sS'mechanism'
p3015
I20
sS'emerged'
p3016
I20
sS'instance'
p3017
I300
sS'concerns'
p3018
I10
sS'pivotal'
p3019
I10
sS'Frankfurt'
p3020
I10
sS'which'
p3021
I640
sS'3,4,5'
p3022
I10
sS'Radio'
p3023
I10
sS'techniques'
p3024
I20
sS'='
p3025
I50
sS'competence'
p3026
I10
sS'Pierce'
p3027
I110
sS'MacKay'
p3028
I60
sS'asserts'
p3029
I10
sS'axiomatic'
p3030
I20
sS'who'
p3031
I220
sS'Minds'
p3032
I10
sS'Without'
p3033
I10
sS'connected'
p3034
I60
sS'definitions'
p3035
I50
sS'06'
p3036
I10
sS'intrinsic'
p3037
I20
sS'why'
p3038
I60
sS'Lindsay'
p3039
I30
sS'Unified'
p3040
I50
sS'Descartes'
p3041
I10
sS'consequences'
p3042
I30
sS'Models'
p3043
I20
sS'nobody'
p3044
I30
sS'stronger'
p3045
I10
sS'brought'
p3046
I10
sS'looked'
p3047
I10
sS'Namely'
p3048
I80
sS'talk'
p3049
I10
sS'analogically'
p3050
I10
sS'mechanical'
p3051
I40
sS'built'
p3052
I40
sS'Begrundung'
p3053
I10
sS'its'
p3054
I410
sS'fact'
p3055
I50
sS'impression'
p3056
I20
sS'emerging'
p3057
I10
sS'selection'
p3058
I10
sS'Paris'
p3059
I10
sS'text'
p3060
I110
sS'cognitively'
p3061
I10
sS'supported'
p3062
I20
sS'146-160'
p3063
I10
sS'bring'
p3064
I20
sS'Stud'
p3065
I10
sS'Innovation'
p3066
I10
sS'Acta'
p3067
I10
sS'agrees'
p3068
I10
sS'postulates'
p3069
I20
sS'T.'
p3070
I10
sS'knowledge'
p3071
I690
sS'('
p3072
I4150
sS'controls'
p3073
I10
sS'entities'
p3074
I70
sS'obeys'
p3075
I10
sS'originally'
p3076
I10
sS'York'
p3077
I120
sS'ambiguity'
p3078
I30
sS'postulated'
p3079
I10
sS'partially'
p3080
I10
sS'local'
p3081
I10
sS'achieve'
p3082
I80
sS'meant'
p3083
I10
sS'xxvxxvi'
p3084
I10
sS'insight'
p3085
I10
sS'Competitive'
p3086
I10
sS'means'
p3087
I190
sS'Whether'
p3088
I10
sS'familiar'
p3089
I10
sS'simplest'
p3090
I10
sS'trait'
p3091
I10
sS'stripes'
p3092
I10
sS'abiotic'
p3093
I10
sS'ones'
p3094
I20
sS'words'
p3095
I140
sS'compute'
p3096
I20
sS'argues'
p3097
I20
sS'procedures'
p3098
I10
sS'Italian'
p3099
I20
sS'produced'
p3100
I20
sS'processes'
p3101
I190
sS'Feynmann'
p3102
I10
sS'Ten'
p3103
I10
sS'structuring'
p3104
I10
sS'New'
p3105
I190
sS'h'
p3106
I60
sS'Saarbrucken'
p3107
I10
sS'computation-theoretical'
p3108
I10
sS'comprising'
p3109
I10
sS'tuned'
p3110
I10
sS'stuff'
p3111
I10
sS'she'
p3112
I40
sS'Wyner'
p3113
I10
sS'contain'
p3114
I30
sS'an'
p3115
I1250
sS'Austrian'
p3116
I10
sS'Activating'
p3117
I10
sS'KIF'
p3118
I10
sS'generations'
p3119
I20
sS'view'
p3120
I120
sS'diversity'
p3121
I30
sS'available'
p3122
I10
sS'constructing'
p3123
I10
sS'exists'
p3124
I180
sS'Thinking'
p3125
I10
sS'frame'
p3126
I10
sS'humans'
p3127
I10
sS'we'
p3128
I1080
sS'elusiveness'
p3129
I10
sS'computes'
p3130
I20
sS'computer'
p3131
I380
sS'TripleC'
p3132
I10
sS'Petri'
p3133
I10
sS'enhanced'
p3134
I10
sS'psychical'
p3135
I10
sS'recently'
p3136
I20
sS'Lesne'
p3137
I10
sS'dyadic'
p3138
I40
sS'closer'
p3139
I10
sS'interacting'
p3140
I40
sS'pattern'
p3141
I40
sS'unless'
p3142
I20
sS'PC'
p3143
I10
sS'state'
p3144
I50
sS'difficulties'
p3145
I10
sS'Capuro'
p3146
I20
sS'invariant'
p3147
I30
sS'neither'
p3148
I20
sS'R.B'
p3149
I20
sS'ontology'
p3150
I50
sS'interchangeably'
p3151
I10
sS'Forum'
p3152
I10
sS'linguistics'
p3153
I40
sS'importance'
p3154
I30
sS'Programming'
p3155
I10
sS'agencies'
p3156
I20
sS'however'
p3157
I30
sS'S'
p3158
I70
sS'hypothesis'
p3159
I10
sS'key'
p3160
I10
sS'outer'
p3161
I10
sS'precious'
p3162
I10
sS'configuration'
p3163
I10
sS'P.'
p3164
I60
sS'Anchor'
p3165
I10
sS'Intelligence'
p3166
I20
sS'Emotion'
p3167
I10
sS'interpretations'
p3168
I40
sS'defense'
p3169
I10
sS'limits'
p3170
I20
sS'goal'
p3171
I10
sS'taking'
p3172
I60
sS'popularize'
p3173
I10
sS'etc'
p3174
I120
sS'383'
p3175
I10
sS'Cybernetics'
p3176
I40
sS'attributes'
p3177
I10
sS'Dynamics'
p3178
I10
sS'heart'
p3179
I10
sS'camera'
p3180
I10
sS'quantum-mechanical'
p3181
I10
sS'detailed'
p3182
I10
sS'relevant'
p3183
I30
sS'unfold'
p3184
I10
sS'unfolding'
p3185
I10
sS'cf'
p3186
I40
sS'environments'
p3187
I10
sS'Los'
p3188
I20
sS'Finally'
p3189
I20
sS'coordinates'
p3190
I10
sS'respect'
p3191
I120
sS'disparate'
p3192
I10
sS'Some'
p3193
I80
sS'Nauka'
p3194
I10
sS'i.e.'
p3195
I90
sS'geometries'
p3196
I10
sS'addition'
p3197
I40
sS'Modelling'
p3198
I10
sS'73.'
p3199
I10
sS'immense'
p3200
I10
sS'genetic'
p3201
I30
sS'Newtonian-Laplacian'
p3202
I10
sS'treat'
p3203
I30
sS'recognize'
p3204
I10
sS'improve'
p3205
I20
sS'fundamentality'
p3206
I10
sS'enlarged'
p3207
I10
sS'faced'
p3208
I10
sS'transmission/extraction'
p3209
I10
sS'corresponding'
p3210
I110
sS'powerful'
p3211
I10
sS'symbolical'
p3212
I10
sS'A.I'
p3213
I10
sS'Kurakin'
p3214
I30
sS'sufficient'
p3215
I20
sS'Semantic'
p3216
I10
sS'equations'
p3217
I10
sS'last'
p3218
I10
sS'repetition'
p3219
I10
sS'Consequently'
p3220
I40
sS'2006'
p3221
I40
sS'infological'
p3222
I720
sS'reverse'
p3223
I10
sS'encompassed'
p3224
I10
sS'contexts'
p3225
I10
sS'2011'
p3226
I80
sS'Ann'
p3227
I10
sS'value'
p3228
I10
sS'General'
p3229
I20
sS'will'
p3230
I180
sS'structuralism'
p3231
I30
sS'revisited'
p3232
I10
sS'2012'
p3233
I20
sS'discoveries'
p3234
I20
sS'meaning/interpretant'
p3235
I10
sS'atter'
p3236
I10
sS'126-131'
p3237
I10
sS'find'
p3238
I100
sS'almost'
p3239
I10
sS'neuron'
p3240
I70
sS'thus'
p3241
I90
sS'surprisingly'
p3242
I10
sS'Mechanism'
p3243
I10
sS'hardware'
p3244
I20
sS'Atkinson'
p3245
I30
sS'W.R.'
p3246
I10
sS'dual'
p3247
I10
sS'You'
p3248
I20
sS'Formalized'
p3249
I20
sS'descriptive'
p3250
I10
sS'55-63'
p3251
I10
sS'recipients'
p3252
I20
sS')'
p3253
I4150
sS'8738-8743'
p3254
I10
sS'Harvard'
p3255
I30
sS'radiation'
p3256
I10
sS'access'
p3257
I10
sS'parts'
p3258
I40
sS'Oxford'
p3259
I70
sS'Reinhold'
p3260
I10
sS'gets'
p3261
I20
sS'infer'
p3262
I10
sS'illusions'
p3263
I10
sS'Finite'
p3264
I10
sS'practice'
p3265
I40
sS'http'
p3266
I60
sS'unconventional'
p3267
I10
sS'Third'
p3268
I40
sS'complemented'
p3269
I10
sS'1-3'
p3270
I10
sS'logic'
p3271
I10
sS'upon'
p3272
I20
sS'effect'
p3273
I10
sS'v.'
p3274
I240
sS'necessitates'
p3275
I10
sS'13,14'
p3276
I10
sS'student'
p3277
I30
sS'observer-created'
p3278
I20
sS'infinite'
p3279
I10
sS'frequently'
p3280
I10
sS'adherents'
p3281
I10
sS'scholars'
p3282
I10
sS'Info-computationalist'
p3283
I10
sS'transaction'
p3284
I60
sS'Mackay'
p3285
I10
sS'reflection'
p3286
I20
sS'neural'
p3287
I20
sS'edition'
p3288
I40
sS'modeled'
p3289
I10
sS'well'
p3290
I170
sS'Yet'
p3291
I10
sS'thought'
p3292
I30
sS'patterns'
p3293
I70
sS'1'
p3294
I320
sS'Levi-Strauss'
p3295
I10
sS'Relativized'
p3296
I10
sS'sets'
p3297
I90
sS'position'
p3298
I40
sS'p242'
p3299
I10
sS'stores'
p3300
I10
sS'less'
p3301
I40
sS'claiming'
p3302
I10
sS'1952'
p3303
I20
sS'obtain'
p3304
I10
sS'Emotions'
p3305
I10
sS'sources'
p3306
I10
sS'select'
p3307
I10
sS'stored'
p3308
I60
sS'distant'
p3309
I10
sS'Collected'
p3310
I20
sS'she/he/it'
p3311
I10
sS'Else'
p3312
I10
sS'happiness'
p3313
I10
sS'Email'
p3314
I10
sS'web'
p3315
I20
sS'Aspects'
p3316
I10
sS'Advantage'
p3317
I10
sS'Morphological'
p3318
I10
sS'nonequilibrium'
p3319
I10
sS'selfsimilar'
p3320
I10
sS'1958'
p3321
I60
sS'etre'
p3322
I10
sS'add'
p3323
I10
sS'book'
p3324
I220
sS'attractive'
p3325
I10
sS'possibly'
p3326
I10
sS'usage'
p3327
I50
sS'named-settheoretical'
p3328
I10
sS'By'
p3329
I20
sS'characteristically'
p3330
I10
sS'identical'
p3331
I30
sS'Cellular'
p3332
I10
sS'metaphysics'
p3333
I10
sS'biologists'
p3334
I20
sS'306-317'
p3335
I10
sS'whatever'
p3336
I10
sS'9-30'
p3337
I10
sS'Hornweder'
p3338
I10
sS'height'
p3339
I10
sS'prominent'
p3340
I20
sS'Evolutionary'
p3341
I20
sS'necessary'
p3342
I150
sS'like'
p3343
I80
sS'lost'
p3344
I10
sS'chairs'
p3345
I50
sS'qualitative'
p3346
I10
sS'units'
p3347
I10
sS'Non-Diophantine'
p3348
I20
sS'RAM'
p3349
I20
sS'lose'
p3350
I10
sS'agents'
p3351
I50
sS'works'
p3352
I30
sS'Eds.'
p3353
I10
sS'155-160'
p3354
I10
sS'because'
p3355
I200
sS'functional'
p3356
I20
sS'classical'
p3357
I50
sS'sequence'
p3358
I10
sS'Sun'
p3359
I20
sS'phenomena'
p3360
I150
sS'convey'
p3361
I20
sS'proper'
p3362
I20
sS'home'
p3363
I10
sS'proofs'
p3364
I20
sS'K.E'
p3365
I10
sS'Wolfram'
p3366
I70
sS'happens'
p3367
I10
sS'sich'
p3368
I10
sS'ROM'
p3369
I20
sS'sufficiently'
p3370
I10
sS'demonstrates'
p3371
I40
sS'However'
p3372
I480
sS'philosopher'
p3373
I60
sS'e-mail'
p3374
I10
sS'does'
p3375
I250
sS'civilization'
p3376
I20
sS'Deutscher'
p3377
I10
sS'recipient/receiver'
p3378
I10
sS'demonstrated'
p3379
I20
sS'limitations'
p3380
I20
sS'biology'
p3381
I50
sS'self-organization'
p3382
I10
sS'overall'
p3383
I10
sS'chemistry'
p3384
I10
sS'inherently'
p3385
I10
sS'although'
p3386
I90
sS'imaginary'
p3387
I10
sS'343-411'
p3388
I10
sS'vs.'
p3389
I20
sS'stage'
p3390
I10
sS'gained'
p3391
I10
sS'about'
p3392
I270
sS'actual'
p3393
I40
sS'Mental'
p3394
I60
sS'world'
p3395
I800
sS'universe'
p3396
I190
sS'p370'
p3397
I10
sS'neurons'
p3398
I10
sS'dependence'
p3399
I10
sS'recognized'
p3400
I20
sS'carries'
p3401
I10
sS'carrier'
p3402
I430
sS'215-225'
p3403
I10
sS'Questions'
p3404
I10
sS'augmentation'
p3405
I10
sS'introduced'
p3406
I60
sS'Really'
p3407
I20
sS'subset'
p3408
I20
sS'Processing'
p3409
I10
sS'Psychology'
p3410
I10
sS'Collier'
p3411
I10
sS'previously'
p3412
I10
sS'Two'
p3413
I30
sS'actualized'
p3414
I10
sS'receptor'
p3415
I40
sS'actions'
p3416
I10
sS'Earth'
p3417
I10
sS'Approach'
p3418
I20
sS'mere'
p3419
I10
sS'1986'
p3420
I50
sS'1987'
p3421
I20
sS'1984'
p3422
I20
sS'1985'
p3423
I10
sS'van'
p3424
I10
sS'1983'
p3425
I30
sS'1980'
p3426
I20
sS'1981'
p3427
I20
sS'Space/Cosmos'
p3428
I10
sS'spots'
p3429
I10
sS'1989'
p3430
I40
sS'inner'
p3431
I40
sS'agent-based'
p3432
I10
sS'naturally'
p3433
I20
sS'function'
p3434
I60
sS'Science'
p3435
I210
sS'but'
p3436
I370
sS'Bohr'
p3437
I10
sS'subjective'
p3438
I100
sS'neutral'
p3439
I10
sS'construction'
p3440
I10
sS'Suppose'
p3441
I10
sS'goals'
p3442
I10
sS'V.Brendal'
p3443
I10
sS'highest'
p3444
I20
sS'Hartley-Shannon'
p3445
I10
sS'he'
p3446
I90
sS'made'
p3447
I70
sS'wise'
p3448
I10
sS'3-9'
p3449
I10
sS'evident'
p3450
I50
sS'society'
p3451
I110
sS'whether'
p3452
I60
sS'cells'
p3453
I20
sS'all-encompassing'
p3454
I10
sS'record'
p3455
I10
sS'converted'
p3456
I10
sS'Einstein'
p3457
I30
sS'Breach'
p3458
I20
sS'demonstrate'
p3459
I10
sS'problem'
p3460
I90
sS'piece'
p3461
I110
sS'informational'
p3462
I140
sS'mechanics'
p3463
I20
sS'Aritmetics'
p3464
I10
sS'CIF'
p3465
I10
sS'links'
p3466
I10
sS'Definition'
p3467
I80
sS'curve'
p3468
I20
sS'universal'
p3469
I50
sS'measure'
p3470
I70
sS'meaningless'
p3471
I30
sS'124-131'
p3472
I10
sS'Significance'
p3473
I10
sS'beats'
p3474
I10
sS'lived'
p3475
I10
sS'well-defined'
p3476
I10
sS'Physicists'
p3477
I10
sS'self-*'
p3478
I10
sS'education'
p3479
I50
sS'Furner'
p3480
I20
sS'Function'
p3481
I10
sS'functions'
p3482
I110
sS'48'
p3483
I20
sS'49'
p3484
I20
sS'46'
p3485
I20
sS'47'
p3486
I20
sS'44'
p3487
I30
sS'45'
p3488
I20
sS'42'
p3489
I20
sS'43'
p3490
I20
sS'40'
p3491
I20
sS'41'
p3492
I20
sS'other'
p3493
I410
sS'details'
p3494
I10
sS'astrological'
p3495
I10
sS'Universe'
p3496
I20
sS'misconceptions'
p3497
I20
sS'u'
p3498
I10
sS'Hjelmslev'
p3499
I20
sS'illusion'
p3500
I40
sS'Structure'
p3501
I30
sS'conclusion'
p3502
I50
sS'area'
p3503
I20
sS'Any'
p3504
I20
sS'kinds'
p3505
I180
sS'respected'
p3506
I10
sS'2+2'
p3507
I10
sS'emerges'
p3508
I10
sS'class'
p3509
I80
sS'become'
p3510
I50
sS'variation'
p3511
I10
sS'U'
p3512
I40
sS'Context'
p3513
I10
sS'else'
p3514
I30
sS'inspiration'
p3515
I10
sS'prevalent'
p3516
I10
sS'oral'
p3517
I10
sS'plenty'
p3518
I10
sS'Thus'
p3519
I240
sS'rule'
p3520
I70
sS'portion'
p3521
I240
sS'Munchen'
p3522
I10
sS'Analog'
p3523
I10
sS'Spanish'
p3524
I20
sS'shortcuts'
p3525
I10
sS'validation'
p3526
I10
sS'indirectly'
p3527
I10
sS'8th'
p3528
I10
s.